Certificate:
    Data:
        Version: 3 (0x2)
        Serial Number:
            d8:d3:e3:a6:cb:e3:cd:8e
        Signature Algorithm: sha256WithRSAEncryption
        Issuer: C=FI, L=Tuusula, O=w1.fi, CN=Root CA
        Validity
            Not Before: Apr 17 18:25:37 2024 GMT
            Not After : Apr 17 18:25:37 2025 GMT
        Subject: C=FI, O=w1.fi, CN=server-policies2.w1.fi
        Subject Public Key Info:
            Public Key Algorithm: rsaEncryption
                Public-Key: (3072 bit)
                Modulus:
                    00:e6:50:d1:28:05:27:6c:d4:42:d3:42:c7:cc:53:
                    a9:6b:c2:a3:ab:20:6f:17:34:9d:e4:1d:31:d0:c4:
                    68:65:42:d5:e8:bd:aa:b8:e4:e9:f6:ee:2e:75:cd:
                    6a:8c:f6:8e:aa:af:6c:7c:eb:35:50:55:b1:c2:b3:
                    f8:a7:d0:1e:a3:33:26:68:40:20:13:74:08:87:ef:
                    b6:3a:f1:7f:3e:f5:7f:93:44:74:37:8b:c3:89:a7:
                    ba:5f:42:39:4a:22:20:40:66:c6:6f:77:cf:54:3f:
                    05:61:de:ab:71:fa:9f:78:6d:97:4a:e8:60:a0:11:
                    aa:6c:ba:9d:44:65:18:e8:e0:8f:d1:df:da:95:ab:
                    41:2c:63:65:f6:42:42:e6:1f:42:a4:1c:74:20:49:
                    f4:d4:92:0e:e3:be:3b:55:fd:38:68:74:3a:e4:df:
                    9a:2b:95:bf:e9:d1:38:8b:16:24:20:35:db:b8:d0:
                    15:30:2e:2f:6a:24:b9:e1:e9:e7:b6:b5:bd:e6:0f:
                    59:dd:df:95:9c:ab:03:b4:c5:42:81:48:61:cc:3c:
                    06:17:85:63:6e:28:cb:d7:88:d1:ce:40:c7:ff:61:
                    51:ac:bb:ba:23:c9:42:a7:7d:27:0d:1e:53:90:cf:
                    22:3f:57:f5:ff:1a:05:0c:9c:7a:1b:fb:e2:47:5f:
                    45:cb:ee:88:a5:a0:54:71:83:f7:d3:d3:c5:bc:b2:
                    7e:85:a7:b1:1a:cf:91:cb:8b:39:ba:7c:2c:9d:b2:
                    c5:79:c3:e0:80:73:06:30:4f:5d:81:52:e2:bf:43:
                    55:85:5d:64:c4:97:ac:e9:2d:7e:30:b5:e1:52:50:
                    53:0c:ac:24:8e:7b:a2:57:8d:ff:b1:05:ba:23:33:
                    a6:08:a3:b4:38:42:f6:5c:d9:bc:5d:75:95:82:ff:
                    4d:9a:db:56:2f:1b:38:d2:51:05:2c:90:62:f1:8e:
                    4c:ee:ea:1b:ae:aa:53:74:85:ba:c6:c3:c2:4b:30:
                    bd:e0:2e:c8:ac:7e:25:cc:32:5f
                Exponent: 65537 (0x10001)
        X509v3 extensions:
            X509v3 Basic Constraints: 
                CA:FALSE
            X509v3 Subject Key Identifier: 
                4E:01:8B:7E:C2:77:94:E1:68:B3:C4:29:35:24:05:0B:DE:84:4A:89
            X509v3 Authority Key Identifier: 
                A4:FD:B9:39:1B:81:B3:AA:EB:88:1D:D4:81:A9:B5:11:70:CC:A7:E1
            Authority Information Access: 
                OCSP - URI:http://server.w1.fi:8888/
            X509v3 Subject Alternative Name: 
                DNS:server-policies2.w1.fi
            X509v3 Certificate Policies: 
                Policy: 1.3.6.1.4.1.40808.1.3.2
            X509v3 Extended Key Usage: 
                TLS Web Server Authentication
    Signature Algorithm: sha256WithRSAEncryption
    Signature Value:
        29:98:1d:52:eb:5b:74:e3:7d:79:31:3f:79:09:4b:84:74:43:
        da:b7:e2:b6:f8:13:ae:79:6c:78:f1:16:2d:58:19:27:8d:bd:
        64:2c:99:f6:d3:16:37:55:47:2d:49:87:59:4e:eb:01:2b:ac:
        e5:82:8b:49:2f:aa:7f:cc:dc:2d:77:c1:0e:52:4b:5e:ef:21:
        88:55:cc:0e:87:6f:44:38:74:a5:2f:4a:f0:61:c2:18:71:d9:
        e8:ac:d0:90:e9:7d:a5:aa:a9:2b:3e:41:c7:10:54:08:96:ee:
        c1:b8:d8:5f:c8:12:91:41:4b:de:f5:f9:48:87:62:40:b4:3c:
        42:28:b4:b5:73:fa:73:0e:2c:35:3c:65:89:b9:f9:2c:b6:48:
        1f:f3:49:57:bc:70:5a:35:9b:36:a1:7b:ae:da:53:3b:7c:b0:
        72:4e:9f:61:dc:b0:6a:e1:ee:af:1b:c0:6a:00:b4:0a:be:9a:
        91:47:a7:3f:01:90:f1:a5:61:35:1a:82:31:49:3c:14:44:52:
        46:a2:36:12:64:9f:e1:4b:58:d9:08:0b:51:b6:aa:03:45:72:
        16:83:e3:21:f5:7a:fd:e9:15:9e:7a:84:45:e0:60:f9:5c:bc:
        7f:8a:df:60:57:21:84:43:c2:56:d4:5f:1c:14:47:98:78:c6:
        6f:f3:77:06
-----BEGIN CERTIFICATE-----
MIIEWjCCA0KgAwIBAgIJANjT46bL482OMA0GCSqGSIb3DQEBCwUAMEExCzAJBgNV
BAYTAkZJMRAwDgYDVQQHDAdUdXVzdWxhMQ4wDAYDVQQKDAV3MS5maTEQMA4GA1UE
AwwHUm9vdCBDQTAeFw0yNDA0MTcxODI1MzdaFw0yNTA0MTcxODI1MzdaMD4xCzAJ
BgNVBAYTAkZJMQ4wDAYDVQQKDAV3MS5maTEfMB0GA1UEAwwWc2VydmVyLXBvbGlj
aWVzMi53MS5maTCCAaIwDQYJKoZIhvcNAQEBBQADggGPADCCAYoCggGBAOZQ0SgF
J2zUQtNCx8xTqWvCo6sgbxc0neQdMdDEaGVC1ei9qrjk6fbuLnXNaoz2jqqvbHzr
NVBVscKz+KfQHqMzJmhAIBN0CIfvtjrxfz71f5NEdDeLw4mnul9COUoiIEBmxm93
z1Q/BWHeq3H6n3htl0roYKARqmy6nURlGOjgj9Hf2pWrQSxjZfZCQuYfQqQcdCBJ
9NSSDuO+O1X9OGh0OuTfmiuVv+nROIsWJCA127jQFTAuL2okueHp57a1veYPWd3f
lZyrA7TFQoFIYcw8BheFY24oy9eI0c5Ax/9hUay7uiPJQqd9Jw0eU5DPIj9X9f8a
BQycehv74kdfRcvuiKWgVHGD99PTxbyyfoWnsRrPkcuLObp8LJ2yxXnD4IBzBjBP
XYFS4r9DVYVdZMSXrOktfjC14VJQUwysJI57oleN/7EFuiMzpgijtDhC9lzZvF11
lYL/TZrbVi8bONJRBSyQYvGOTO7qG66qU3SFusbDwkswveAuyKx+JcwyXwIDAQAB
o4HXMIHUMAkGA1UdEwQCMAAwHQYDVR0OBBYEFE4Bi37Cd5ThaLPEKTUkBQvehEqJ
MB8GA1UdIwQYMBaAFKT9uTkbgbOq64gd1IGptRFwzKfhMDUGCCsGAQUFBwEBBCkw
JzAlBggrBgEFBQcwAYYZaHR0cDovL3NlcnZlci53MS5maTo4ODg4LzAhBgNVHREE
GjAYghZzZXJ2ZXItcG9saWNpZXMyLncxLmZpMBgGA1UdIAQRMA8wDQYLKwYBBAGC
vmgBAwIwEwYDVR0lBAwwCgYIKwYBBQUHAwEwDQYJKoZIhvcNAQELBQADggEBACmY
HVLrW3TjfXkxP3kJS4R0Q9q34rb4E655bHjxFi1YGSeNvWQsmfbTFjdVRy1Jh1lO
6wErrOWCi0kvqn/M3C13wQ5SS17vIYhVzA6Hb0Q4dKUvSvBhwhhx2eis0JDpfaWq
qSs+QccQVAiW7sG42F/IEpFBS971+UiHYkC0PEIotLVz+nMOLDU8ZYm5+Sy2SB/z
SVe8cFo1mzahe67aUzt8sHJOn2HcsGrh7q8bwGoAtAq+mpFHpz8BkPGlYTUagjFJ
PBREUkaiNhJkn+FLWNkIC1G2qgNFchaD4yH1ev3pFZ56hEXgYPlcvH+K32BXIYRD
wlbUXxwUR5h4xm/zdwY=
-----END CERTIFICATE-----
