
fast-classifier.ko:     file format elf32-littlearm


Disassembly of section .text:

00000000 <sfe_ipv4_connection_match_compute_translations>:
/*
 * sfe_ipv4_connection_match_compute_translations()
 *	Compute port and address translations for a connection match entry.
 */
static void sfe_ipv4_connection_match_compute_translations(struct sfe_ipv4_connection_match *cm)
{
       0:	e1a0c00d 	mov	ip, sp
       4:	e92dd810 	push	{r4, fp, ip, lr, pc}
       8:	e24cb004 	sub	fp, ip, #4
	/*
	 * Before we insert the entry look to see if this is tagged as doing address
	 * translations.  If it is then work out the adjustment that we need to apply
	 * to the transport checksum.
	 */
	if (cm->flags & SFE_IPV4_CONNECTION_MATCH_FLAG_XLATE_SRC) {
       c:	e5903030 	ldr	r3, [r0, #48]	@ 0x30
      10:	e213c001 	ands	ip, r3, #1
		adj = (adj & 0xffff) + (adj >> 16);
		cm->xlate_src_csum_adjustment = (u16)adj;

	}

	if (cm->flags & SFE_IPV4_CONNECTION_MATCH_FLAG_XLATE_DEST) {
      14:	e2033002 	and	r3, r3, #2
	if (cm->flags & SFE_IPV4_CONNECTION_MATCH_FLAG_XLATE_SRC) {
      18:	1a000028 	bne	c0 <sfe_ipv4_connection_match_compute_translations+0xc0>
	if (cm->flags & SFE_IPV4_CONNECTION_MATCH_FLAG_XLATE_DEST) {
      1c:	e3530000 	cmp	r3, #0
      20:	0a000024 	beq	b8 <sfe_ipv4_connection_match_compute_translations+0xb8>
		/*
		 * Precompute an incremental checksum adjustment so we can
		 * edit packets in this stream very quickly.  The algorithm is from RFC1624.
		 */
		u16 dest_ip_hi = cm->match_dest_ip >> 16;
      24:	e5903028 	ldr	r3, [r0, #40]	@ 0x28
		adj = (adj & 0xffff) + (adj >> 16);
		adj = (adj & 0xffff) + (adj >> 16);
		cm->xlate_dest_csum_adjustment = (u16)adj;
	}

	if (cm->flags & SFE_IPV4_CONNECTION_MATCH_FLAG_XLATE_SRC) {
      28:	e35c0000 	cmp	ip, #0
		adj = dest_ip_hi + dest_ip_lo + cm->match_dest_port
      2c:	e1d042be 	ldrh	r4, [r0, #46]	@ 0x2e
		u16 xlate_dest_port = ~cm->xlate_dest_port;
      30:	e1d026b0 	ldrh	r2, [r0, #96]	@ 0x60
		u32 xlate_dest_ip = ~cm->xlate_dest_ip;
      34:	e590105c 	ldr	r1, [r0, #92]	@ 0x5c
		adj = dest_ip_hi + dest_ip_lo + cm->match_dest_port
      38:	e6ffe073 	uxth	lr, r3
      3c:	e08ee823 	add	lr, lr, r3, lsr #16
		u16 xlate_dest_port = ~cm->xlate_dest_port;
      40:	e1e02002 	mvn	r2, r2
		u32 xlate_dest_ip = ~cm->xlate_dest_ip;
      44:	e1e0c001 	mvn	ip, r1
		adj = dest_ip_hi + dest_ip_lo + cm->match_dest_port
      48:	e08ee004 	add	lr, lr, r4
		      + xlate_dest_ip_hi + xlate_dest_ip_lo + xlate_dest_port;
      4c:	e6fe2072 	uxtah	r2, lr, r2
      50:	e082282c 	add	r2, r2, ip, lsr #16
      54:	e6f2c07c 	uxtah	ip, r2, ip
		adj = (adj & 0xffff) + (adj >> 16);
      58:	e6ff207c 	uxth	r2, ip
      5c:	e082282c 	add	r2, r2, ip, lsr #16
		adj = (adj & 0xffff) + (adj >> 16);
      60:	e1a0c822 	lsr	ip, r2, #16
      64:	e6fc2072 	uxtah	r2, ip, r2
		cm->xlate_dest_csum_adjustment = (u16)adj;
      68:	e1c026b2 	strh	r2, [r0, #98]	@ 0x62
	if (cm->flags & SFE_IPV4_CONNECTION_MATCH_FLAG_XLATE_SRC) {
      6c:	0a000009 	beq	98 <sfe_ipv4_connection_match_compute_translations+0x98>
		u32 adj = ~cm->match_src_ip + cm->xlate_src_ip;
      70:	e590c024 	ldr	ip, [r0, #36]	@ 0x24
      74:	e5902050 	ldr	r2, [r0, #80]	@ 0x50
		if (adj < cm->xlate_src_ip) {
      78:	e152000c 	cmp	r2, ip
		u32 adj = ~cm->match_src_ip + cm->xlate_src_ip;
      7c:	e042200c 	sub	r2, r2, ip
		if (adj < cm->xlate_src_ip) {
      80:	9a00002b 	bls	134 <sfe_ipv4_connection_match_compute_translations+0x134>
			adj++;
		}

		adj = (adj & 0xffff) + (adj >> 16);
      84:	e1a0c822 	lsr	ip, r2, #16
      88:	e6fc2072 	uxtah	r2, ip, r2
		adj = (adj & 0xffff) + (adj >> 16);
      8c:	e1a0c822 	lsr	ip, r2, #16
      90:	e6fc2072 	uxtah	r2, ip, r2
		cm->xlate_src_partial_csum_adjustment = (u16)adj;
      94:	e1c025b8 	strh	r2, [r0, #88]	@ 0x58
	}

	if (cm->flags & SFE_IPV4_CONNECTION_MATCH_FLAG_XLATE_DEST) {
		u32 adj = ~cm->match_dest_ip + cm->xlate_dest_ip;
		if (adj < cm->xlate_dest_ip) {
      98:	e1530001 	cmp	r3, r1
		u32 adj = ~cm->match_dest_ip + cm->xlate_dest_ip;
      9c:	e0413003 	sub	r3, r1, r3
      a0:	22433001 	subcs	r3, r3, #1
			adj++;
		}

		adj = (adj & 0xffff) + (adj >> 16);
      a4:	e1a02823 	lsr	r2, r3, #16
      a8:	e6f23073 	uxtah	r3, r2, r3
		adj = (adj & 0xffff) + (adj >> 16);
      ac:	e1a02823 	lsr	r2, r3, #16
      b0:	e6f23073 	uxtah	r3, r2, r3
		cm->xlate_dest_partial_csum_adjustment = (u16)adj;
      b4:	e1c036b4 	strh	r3, [r0, #100]	@ 0x64
	}

}
      b8:	e24bd010 	sub	sp, fp, #16
      bc:	e89da810 	ldm	sp, {r4, fp, sp, pc}
		u16 src_ip_hi = cm->match_src_ip >> 16;
      c0:	e590e024 	ldr	lr, [r0, #36]	@ 0x24
	if (cm->flags & SFE_IPV4_CONNECTION_MATCH_FLAG_XLATE_DEST) {
      c4:	e3530000 	cmp	r3, #0
		adj = src_ip_hi + src_ip_lo + cm->match_src_port
      c8:	e1d032bc 	ldrh	r3, [r0, #44]	@ 0x2c
		u32 xlate_src_ip = ~cm->xlate_src_ip;
      cc:	e5902050 	ldr	r2, [r0, #80]	@ 0x50
		adj = src_ip_hi + src_ip_lo + cm->match_src_port
      d0:	e6ff407e 	uxth	r4, lr
      d4:	e084482e 	add	r4, r4, lr, lsr #16
		u32 xlate_src_ip = ~cm->xlate_src_ip;
      d8:	e1e01002 	mvn	r1, r2
		adj = src_ip_hi + src_ip_lo + cm->match_src_port
      dc:	e0844003 	add	r4, r4, r3
		u16 xlate_src_port = ~cm->xlate_src_port;
      e0:	e1d035b4 	ldrh	r3, [r0, #84]	@ 0x54
      e4:	e1e03003 	mvn	r3, r3
		      + xlate_src_ip_hi + xlate_src_ip_lo + xlate_src_port;
      e8:	e6f43073 	uxtah	r3, r4, r3
      ec:	e0833821 	add	r3, r3, r1, lsr #16
      f0:	e6f31071 	uxtah	r1, r3, r1
		adj = (adj & 0xffff) + (adj >> 16);
      f4:	e6ff3071 	uxth	r3, r1
      f8:	e0833821 	add	r3, r3, r1, lsr #16
		adj = (adj & 0xffff) + (adj >> 16);
      fc:	e1a01823 	lsr	r1, r3, #16
     100:	e6f13073 	uxtah	r3, r1, r3
		cm->xlate_src_csum_adjustment = (u16)adj;
     104:	e1c035b6 	strh	r3, [r0, #86]	@ 0x56
	if (cm->flags & SFE_IPV4_CONNECTION_MATCH_FLAG_XLATE_DEST) {
     108:	1affffc5 	bne	24 <sfe_ipv4_connection_match_compute_translations+0x24>
		if (adj < cm->xlate_src_ip) {
     10c:	e15e0002 	cmp	lr, r2
		u32 adj = ~cm->match_src_ip + cm->xlate_src_ip;
     110:	e042200e 	sub	r2, r2, lr
     114:	22422001 	subcs	r2, r2, #1
		adj = (adj & 0xffff) + (adj >> 16);
     118:	e1a03822 	lsr	r3, r2, #16
     11c:	e6f32072 	uxtah	r2, r3, r2
		adj = (adj & 0xffff) + (adj >> 16);
     120:	e1a03822 	lsr	r3, r2, #16
     124:	e6f32072 	uxtah	r2, r3, r2
		cm->xlate_src_partial_csum_adjustment = (u16)adj;
     128:	e1c025b8 	strh	r2, [r0, #88]	@ 0x58
}
     12c:	e24bd010 	sub	sp, fp, #16
     130:	e89da810 	ldm	sp, {r4, fp, sp, pc}
		u32 adj = ~cm->match_src_ip + cm->xlate_src_ip;
     134:	e2422001 	sub	r2, r2, #1
     138:	eaffffd1 	b	84 <sfe_ipv4_connection_match_compute_translations+0x84>

0000013c <sfe_ipv4_update_summary_stats>:
/*
 * sfe_ipv4_update_summary_stats()
 *	Update the summary stats.
 */
static void sfe_ipv4_update_summary_stats(struct sfe_ipv4 *si)
{
     13c:	e1a0c00d 	mov	ip, sp
     140:	e92dd8d0 	push	{r4, r6, r7, fp, ip, lr, pc}
     144:	e24cb004 	sub	fp, ip, #4
	int i;

	si->connection_create_requests64 += si->connection_create_requests;
     148:	e308e0f0 	movw	lr, #33008	@ 0x80f0
     14c:	e2802902 	add	r2, r0, #32768	@ 0x8000
     150:	e080100e 	add	r1, r0, lr
     154:	e592c030 	ldr	ip, [r2, #48]	@ 0x30
	si->connection_create_requests = 0;
     158:	e3a06000 	mov	r6, #0
	si->connection_create_requests64 += si->connection_create_requests;
     15c:	e5113008 	ldr	r3, [r1, #-8]
	si->connection_create_requests = 0;
     160:	e3a07000 	mov	r7, #0
	si->connection_create_requests64 += si->connection_create_requests;
     164:	e3a04000 	mov	r4, #0
     168:	e093300c 	adds	r3, r3, ip
     16c:	e5013008 	str	r3, [r1, #-8]
     170:	e5113004 	ldr	r3, [r1, #-4]
     174:	e2a33000 	adc	r3, r3, #0
     178:	e5013004 	str	r3, [r1, #-4]
	si->connection_create_collisions64 += si->connection_create_collisions;
     17c:	e790300e 	ldr	r3, [r0, lr]
     180:	e592c034 	ldr	ip, [r2, #52]	@ 0x34
     184:	e093300c 	adds	r3, r3, ip
     188:	e591c004 	ldr	ip, [r1, #4]
     18c:	e780300e 	str	r3, [r0, lr]
	si->connection_create_collisions = 0;
	si->connection_destroy_requests64 += si->connection_destroy_requests;
     190:	e2803c81 	add	r3, r0, #33024	@ 0x8100
	si->connection_create_collisions64 += si->connection_create_collisions;
     194:	e2acc000 	adc	ip, ip, #0
     198:	e581c004 	str	ip, [r1, #4]
	si->connection_destroy_requests64 += si->connection_destroy_requests;
     19c:	e9134002 	ldmdb	r3, {r1, lr}
     1a0:	e592c038 	ldr	ip, [r2, #56]	@ 0x38
     1a4:	e091100c 	adds	r1, r1, ip
	si->connection_destroy_requests = 0;
	si->connection_destroy_misses64 += si->connection_destroy_misses;
     1a8:	e593c004 	ldr	ip, [r3, #4]
	si->connection_destroy_requests64 += si->connection_destroy_requests;
     1ac:	e2aee000 	adc	lr, lr, #0
     1b0:	e9034002 	stmdb	r3, {r1, lr}
	si->connection_destroy_misses64 += si->connection_destroy_misses;
     1b4:	e5931000 	ldr	r1, [r3]
     1b8:	e592e03c 	ldr	lr, [r2, #60]	@ 0x3c
     1bc:	e091100e 	adds	r1, r1, lr
	si->connection_destroy_misses = 0;
	si->connection_match_hash_hits64 += si->connection_match_hash_hits;
     1c0:	e308e110 	movw	lr, #33040	@ 0x8110
	si->connection_destroy_misses64 += si->connection_destroy_misses;
     1c4:	e2acc000 	adc	ip, ip, #0
     1c8:	e8831002 	stm	r3, {r1, ip}
	si->connection_match_hash_hits64 += si->connection_match_hash_hits;
     1cc:	e080300e 	add	r3, r0, lr
     1d0:	e592c040 	ldr	ip, [r2, #64]	@ 0x40
     1d4:	e5131008 	ldr	r1, [r3, #-8]
     1d8:	e091100c 	adds	r1, r1, ip
     1dc:	e5031008 	str	r1, [r3, #-8]
     1e0:	e5131004 	ldr	r1, [r3, #-4]
     1e4:	e2a11000 	adc	r1, r1, #0
     1e8:	e5031004 	str	r1, [r3, #-4]
	si->connection_match_hash_hits = 0;
	si->connection_match_hash_reorders64 += si->connection_match_hash_reorders;
     1ec:	e790100e 	ldr	r1, [r0, lr]
     1f0:	e592c044 	ldr	ip, [r2, #68]	@ 0x44
     1f4:	e091100c 	adds	r1, r1, ip
     1f8:	e593c004 	ldr	ip, [r3, #4]
     1fc:	e780100e 	str	r1, [r0, lr]
	si->connection_match_hash_reorders = 0;
	si->connection_flushes64 += si->connection_flushes;
     200:	e308e120 	movw	lr, #33056	@ 0x8120
	si->connection_match_hash_reorders64 += si->connection_match_hash_reorders;
     204:	e2ac1000 	adc	r1, ip, #0
     208:	e5831004 	str	r1, [r3, #4]
	si->connection_flushes64 += si->connection_flushes;
     20c:	e080300e 	add	r3, r0, lr
     210:	e592c048 	ldr	ip, [r2, #72]	@ 0x48
     214:	e5131008 	ldr	r1, [r3, #-8]
     218:	e091100c 	adds	r1, r1, ip
     21c:	e513c004 	ldr	ip, [r3, #-4]
     220:	e5031008 	str	r1, [r3, #-8]
     224:	e2ac1000 	adc	r1, ip, #0
     228:	e5031004 	str	r1, [r3, #-4]
	si->connection_flushes = 0;
	si->packets_forwarded64 += si->packets_forwarded;
     22c:	e790100e 	ldr	r1, [r0, lr]
     230:	e592c04c 	ldr	ip, [r2, #76]	@ 0x4c
     234:	e091100c 	adds	r1, r1, ip
     238:	e593c004 	ldr	ip, [r3, #4]
     23c:	e780100e 	str	r1, [r0, lr]
	si->connection_create_requests = 0;
     240:	e308e030 	movw	lr, #32816	@ 0x8030
	si->packets_forwarded64 += si->packets_forwarded;
     244:	e2ac1000 	adc	r1, ip, #0
	si->connection_create_requests = 0;
     248:	e282c050 	add	ip, r2, #80	@ 0x50
	si->packets_forwarded64 += si->packets_forwarded;
     24c:	e5831004 	str	r1, [r3, #4]
	si->connection_create_requests = 0;
     250:	e3083040 	movw	r3, #32832	@ 0x8040
	si->packets_forwarded = 0;
	si->packets_not_forwarded64 += si->packets_not_forwarded;
     254:	e2801c81 	add	r1, r0, #33024	@ 0x8100
	si->connection_create_requests = 0;
     258:	e18060fe 	strd	r6, [r0, lr]
     25c:	e080e003 	add	lr, r0, r3
     260:	e14e60f8 	strd	r6, [lr, #-8]
     264:	e18060f3 	strd	r6, [r0, r3]
     268:	e2800c82 	add	r0, r0, #33280	@ 0x8200
     26c:	e14c60f8 	strd	r6, [ip, #-8]
	si->packets_not_forwarded64 += si->packets_not_forwarded;
     270:	e5913028 	ldr	r3, [r1, #40]	@ 0x28
     274:	e2800050 	add	r0, r0, #80	@ 0x50
     278:	e592e050 	ldr	lr, [r2, #80]	@ 0x50
     27c:	e093300e 	adds	r3, r3, lr
     280:	e591e02c 	ldr	lr, [r1, #44]	@ 0x2c
     284:	e5813028 	str	r3, [r1, #40]	@ 0x28
     288:	e2813028 	add	r3, r1, #40	@ 0x28
     28c:	e2aee000 	adc	lr, lr, #0
     290:	e581e02c 	str	lr, [r1, #44]	@ 0x2c
	si->packets_not_forwarded = 0;
     294:	e5824050 	str	r4, [r2, #80]	@ 0x50

	for (i = 0; i < SFE_IPV4_EXCEPTION_EVENT_LAST; i++) {
		si->exception_events64[i] += si->exception_events[i];
     298:	e5b32008 	ldr	r2, [r3, #8]!
     29c:	e5bce004 	ldr	lr, [ip, #4]!
     2a0:	e5931004 	ldr	r1, [r3, #4]
     2a4:	e092200e 	adds	r2, r2, lr
     2a8:	e5832000 	str	r2, [r3]
     2ac:	e2a12000 	adc	r2, r1, #0
	for (i = 0; i < SFE_IPV4_EXCEPTION_EVENT_LAST; i++) {
     2b0:	e1530000 	cmp	r3, r0
		si->exception_events64[i] += si->exception_events[i];
     2b4:	e5832004 	str	r2, [r3, #4]
		si->exception_events[i] = 0;
     2b8:	e58c4000 	str	r4, [ip]
	for (i = 0; i < SFE_IPV4_EXCEPTION_EVENT_LAST; i++) {
     2bc:	1afffff5 	bne	298 <sfe_ipv4_update_summary_stats+0x15c>
	}
}
     2c0:	e24bd018 	sub	sp, fp, #24
     2c4:	e89da8d0 	ldm	sp, {r4, r6, r7, fp, sp, pc}

000002c8 <sfe_ipv4_debug_dev_read>:
/*
 * sfe_ipv4_debug_dev_read()
 *	Send info to userspace upon read request from user
 */
static ssize_t sfe_ipv4_debug_dev_read(struct file *filp, char *buffer, size_t length, loff_t *offset)
{
     2c8:	e1a0c00d 	mov	ip, sp
     2cc:	e92dd9f0 	push	{r4, r5, r6, r7, r8, fp, ip, lr, pc}
     2d0:	e24cb004 	sub	fp, ip, #4
     2d4:	e24ddfc7 	sub	sp, sp, #796	@ 0x31c
	char msg[CHAR_DEV_MSG_SIZE];
	int total_read = 0;
	struct sfe_ipv4_debug_xml_write_state *ws;
	struct sfe_ipv4 *si = &__si;

	ws = (struct sfe_ipv4_debug_xml_write_state *)filp->private_data;
     2d8:	e5904090 	ldr	r4, [r0, #144]	@ 0x90
	int total_read = 0;
     2dc:	e3a03000 	mov	r3, #0
{
     2e0:	e50b2330 	str	r2, [fp, #-816]	@ 0xfffffcd0
     2e4:	e1a06001 	mov	r6, r1
	int total_read = 0;
     2e8:	e50b3328 	str	r3, [fp, #-808]	@ 0xfffffcd8
	while ((ws->state != SFE_IPV4_DEBUG_XML_STATE_DONE) && (length > CHAR_DEV_MSG_SIZE)) {
     2ec:	e594c000 	ldr	ip, [r4]
     2f0:	e35c0009 	cmp	ip, #9
     2f4:	0a000016 	beq	354 <sfe_ipv4_debug_dev_read+0x8c>
		if ((sfe_ipv4_debug_xml_write_methods[ws->state])(si, buffer, msg, &length, &total_read, ws)) {
     2f8:	e3008000 	movw	r8, #0
     2fc:	e3007000 	movw	r7, #0
     300:	e3408000 	movt	r8, #0
     304:	e3407000 	movt	r7, #0
     308:	ea000007 	b	32c <sfe_ipv4_debug_dev_read+0x64>
     30c:	e798510c 	ldr	r5, [r8, ip, lsl #2]
     310:	e24bcfca 	sub	ip, fp, #808	@ 0x328
     314:	e58dc000 	str	ip, [sp]
     318:	e58d4004 	str	r4, [sp, #4]
     31c:	e12fff35 	blx	r5
	while ((ws->state != SFE_IPV4_DEBUG_XML_STATE_DONE) && (length > CHAR_DEV_MSG_SIZE)) {
     320:	e594c000 	ldr	ip, [r4]
     324:	e35c0009 	cmp	ip, #9
     328:	0a000006 	beq	348 <sfe_ipv4_debug_dev_read+0x80>
     32c:	e51be330 	ldr	lr, [fp, #-816]	@ 0xfffffcd0
		if ((sfe_ipv4_debug_xml_write_methods[ws->state])(si, buffer, msg, &length, &total_read, ws)) {
     330:	e24b3e33 	sub	r3, fp, #816	@ 0x330
     334:	e24b2fc9 	sub	r2, fp, #804	@ 0x324
     338:	e1a01006 	mov	r1, r6
     33c:	e1a00007 	mov	r0, r7
	while ((ws->state != SFE_IPV4_DEBUG_XML_STATE_DONE) && (length > CHAR_DEV_MSG_SIZE)) {
     340:	e35e0c03 	cmp	lr, #768	@ 0x300
     344:	8afffff0 	bhi	30c <sfe_ipv4_debug_dev_read+0x44>
			continue;
		}
	}

	return total_read;
     348:	e51b0328 	ldr	r0, [fp, #-808]	@ 0xfffffcd8
}
     34c:	e24bd020 	sub	sp, fp, #32
     350:	e89da9f0 	ldm	sp, {r4, r5, r6, r7, r8, fp, sp, pc}
	while ((ws->state != SFE_IPV4_DEBUG_XML_STATE_DONE) && (length > CHAR_DEV_MSG_SIZE)) {
     354:	e1a00003 	mov	r0, r3
     358:	eafffffb 	b	34c <sfe_ipv4_debug_dev_read+0x84>

0000035c <sfe_ipv6_connection_match_compute_translations>:
/*
 * sfe_ipv6_connection_match_compute_translations()
 *	Compute port and address translations for a connection match entry.
 */
static void sfe_ipv6_connection_match_compute_translations(struct sfe_ipv6_connection_match *cm)
{
     35c:	e1a0c00d 	mov	ip, sp
     360:	e92ddff0 	push	{r4, r5, r6, r7, r8, r9, sl, fp, ip, lr, pc}
     364:	e24cb004 	sub	fp, ip, #4
     368:	e24dd02c 	sub	sp, sp, #44	@ 0x2c
	/*
	 * Before we insert the entry look to see if this is tagged as doing address
	 * translations.  If it is then work out the adjustment that we need to apply
	 * to the transport checksum.
	 */
	if (cm->flags & SFE_IPV6_CONNECTION_MATCH_FLAG_XLATE_SRC) {
     36c:	e590c048 	ldr	ip, [r0, #72]	@ 0x48
     370:	e31c0001 	tst	ip, #1
     374:	0a00002d 	beq	430 <sfe_ipv6_connection_match_compute_translations+0xd4>
		*(idx_32++) = cm->match_src_ip->addr[2];
		*(idx_32++) = cm->match_src_ip->addr[3];

		idx_16 = (u16 *)idx_32;
		*(idx_16++) = cm->match_src_port;
		*(idx_16++) = ~cm->xlate_src_port;
     378:	e1d0e7b8 	ldrh	lr, [r0, #120]	@ 0x78
		*(idx_32++) = cm->match_src_ip->addr[0];
     37c:	e5903024 	ldr	r3, [r0, #36]	@ 0x24
		*(idx_16++) = cm->match_src_port;
     380:	e5902028 	ldr	r2, [r0, #40]	@ 0x28
     384:	e590702c 	ldr	r7, [r0, #44]	@ 0x2c
     388:	e5906030 	ldr	r6, [r0, #48]	@ 0x30
		*(idx_16++) = ~cm->xlate_src_port;
     38c:	e1e0e00e 	mvn	lr, lr
		*(idx_16++) = cm->match_src_port;
     390:	e1d014b4 	ldrh	r1, [r0, #68]	@ 0x44
		 */
		for (idx_32 = diff; idx_32 < diff + 9; idx_32++) {
			u32 w = *idx_32;
			adj += carry;
			adj += w;
			carry = (w > adj);
     394:	e0933002 	adds	r3, r3, r2
		*(idx_32++) = ~cm->xlate_src_ip->addr[1];
     398:	e590206c 	ldr	r2, [r0, #108]	@ 0x6c
		*(idx_16++) = cm->match_src_port;
     39c:	e14b14b4 	strh	r1, [fp, #-68]	@ 0xffffffbc
		*(idx_32++) = ~cm->xlate_src_ip->addr[0];
     3a0:	e5901068 	ldr	r1, [r0, #104]	@ 0x68
		*(idx_16++) = ~cm->xlate_src_port;
     3a4:	e14be4b2 	strh	lr, [fp, #-66]	@ 0xffffffbe
			adj += w;
     3a8:	e0a7e003 	adc	lr, r7, r3
		*(idx_32++) = ~cm->xlate_src_ip->addr[1];
     3ac:	e1e09002 	mvn	r9, r2
     3b0:	e086400e 	add	r4, r6, lr
			u32 w = *idx_32;
     3b4:	e51b5044 	ldr	r5, [fp, #-68]	@ 0xffffffbc
			adj += w;
     3b8:	e157000e 	cmp	r7, lr
     3bc:	82844001 	addhi	r4, r4, #1
		*(idx_32++) = ~cm->xlate_src_ip->addr[2];
     3c0:	e590e070 	ldr	lr, [r0, #112]	@ 0x70
		*(idx_32++) = ~cm->xlate_src_ip->addr[0];
     3c4:	e1e0a001 	mvn	sl, r1
		*(idx_32++) = ~cm->xlate_src_ip->addr[3];
     3c8:	e5903074 	ldr	r3, [r0, #116]	@ 0x74
		*(idx_32++) = ~cm->xlate_src_ip->addr[2];
     3cc:	e1e0800e 	mvn	r8, lr
     3d0:	e084e005 	add	lr, r4, r5
			adj += w;
     3d4:	e1560004 	cmp	r6, r4
     3d8:	828ee001 	addhi	lr, lr, #1
		*(idx_32++) = ~cm->xlate_src_ip->addr[3];
     3dc:	e1e07003 	mvn	r7, r3
     3e0:	e04e1001 	sub	r1, lr, r1
			adj += w;
     3e4:	e155000e 	cmp	r5, lr
     3e8:	92411001 	subls	r1, r1, #1
     3ec:	e0412002 	sub	r2, r1, r2
     3f0:	e15a0001 	cmp	sl, r1
     3f4:	92422001 	subls	r2, r2, #1
     3f8:	e5901070 	ldr	r1, [r0, #112]	@ 0x70
     3fc:	e0421001 	sub	r1, r2, r1
     400:	e1590002 	cmp	r9, r2
     404:	92411001 	subls	r1, r1, #1
     408:	e0413003 	sub	r3, r1, r3
     40c:	e1580001 	cmp	r8, r1
     410:	92433001 	subls	r3, r3, #1
		}
		adj += carry;
     414:	e1570003 	cmp	r7, r3
     418:	82833001 	addhi	r3, r3, #1
		adj = (adj & 0xffff) + (adj >> 16);
     41c:	e1a02823 	lsr	r2, r3, #16
     420:	e6f23073 	uxtah	r3, r2, r3
		adj = (adj & 0xffff) + (adj >> 16);
     424:	e1a02823 	lsr	r2, r3, #16
     428:	e6f23073 	uxtah	r3, r2, r3
		cm->xlate_src_csum_adjustment = (u16)adj;
     42c:	e1c037ba 	strh	r3, [r0, #122]	@ 0x7a
	}

	if (cm->flags & SFE_IPV6_CONNECTION_MATCH_FLAG_XLATE_DEST) {
     430:	e31c0002 	tst	ip, #2
     434:	0a00002b 	beq	4e8 <sfe_ipv6_connection_match_compute_translations+0x18c>
		*(idx_32++) = cm->match_dest_ip->addr[2];
		*(idx_32++) = cm->match_dest_ip->addr[3];

		idx_16 = (u16 *)idx_32;
		*(idx_16++) = cm->match_dest_port;
		*(idx_16++) = ~cm->xlate_dest_port;
     438:	e1d028bc 	ldrh	r2, [r0, #140]	@ 0x8c
		*(idx_32++) = cm->match_dest_ip->addr[2];
     43c:	e2803034 	add	r3, r0, #52	@ 0x34
     440:	e8935008 	ldm	r3, {r3, ip, lr}
		*(idx_16++) = cm->match_dest_port;
     444:	e1d014b6 	ldrh	r1, [r0, #70]	@ 0x46
		*(idx_16++) = ~cm->xlate_dest_port;
     448:	e1e02002 	mvn	r2, r2
		*(idx_32++) = cm->match_dest_ip->addr[3];
     44c:	e5907040 	ldr	r7, [r0, #64]	@ 0x40
		*(idx_16++) = ~cm->xlate_dest_port;
     450:	e093300c 	adds	r3, r3, ip
		idx_32 = (u32 *)idx_16;

		*(idx_32++) = ~cm->xlate_dest_ip->addr[0];
		*(idx_32++) = ~cm->xlate_dest_ip->addr[1];
		*(idx_32++) = ~cm->xlate_dest_ip->addr[2];
     454:	e590c084 	ldr	ip, [r0, #132]	@ 0x84
		*(idx_16++) = cm->match_dest_port;
     458:	e14b14b4 	strh	r1, [fp, #-68]	@ 0xffffffbc
		 * wrap-around!
		 */
		for (idx_32 = diff; idx_32 < diff + 9; idx_32++) {
			u32 w = *idx_32;
			adj += carry;
			adj += w;
     45c:	e0ae3003 	adc	r3, lr, r3
		*(idx_32++) = ~cm->xlate_dest_ip->addr[0];
     460:	e590107c 	ldr	r1, [r0, #124]	@ 0x7c
		*(idx_16++) = ~cm->xlate_dest_port;
     464:	e14b24b2 	strh	r2, [fp, #-66]	@ 0xffffffbe
     468:	e0878003 	add	r8, r7, r3
		*(idx_32++) = ~cm->xlate_dest_ip->addr[1];
     46c:	e5902080 	ldr	r2, [r0, #128]	@ 0x80
			u32 w = *idx_32;
     470:	e51b5044 	ldr	r5, [fp, #-68]	@ 0xffffffbc
			adj += w;
     474:	e15e0003 	cmp	lr, r3
     478:	82888001 	addhi	r8, r8, #1
		*(idx_32++) = ~cm->xlate_dest_ip->addr[3];
     47c:	e5903088 	ldr	r3, [r0, #136]	@ 0x88
		*(idx_32++) = ~cm->xlate_dest_ip->addr[0];
     480:	e1e06001 	mvn	r6, r1
		*(idx_32++) = ~cm->xlate_dest_ip->addr[1];
     484:	e1e0e002 	mvn	lr, r2
     488:	e0884005 	add	r4, r8, r5
			adj += w;
     48c:	e1570008 	cmp	r7, r8
     490:	82844001 	addhi	r4, r4, #1
     494:	e0441001 	sub	r1, r4, r1
     498:	e1550004 	cmp	r5, r4
     49c:	92411001 	subls	r1, r1, #1
     4a0:	e0412002 	sub	r2, r1, r2
     4a4:	e1560001 	cmp	r6, r1
     4a8:	92422001 	subls	r2, r2, #1
     4ac:	e042100c 	sub	r1, r2, ip
		*(idx_32++) = ~cm->xlate_dest_ip->addr[2];
     4b0:	e1e0c00c 	mvn	ip, ip
			adj += w;
     4b4:	e15e0002 	cmp	lr, r2
     4b8:	92411001 	subls	r1, r1, #1
		*(idx_32++) = ~cm->xlate_dest_ip->addr[3];
     4bc:	e1e02003 	mvn	r2, r3
     4c0:	e0413003 	sub	r3, r1, r3
			adj += w;
     4c4:	e15c0001 	cmp	ip, r1
     4c8:	92433001 	subls	r3, r3, #1
			carry = (w > adj);
		}
		adj += carry;
     4cc:	e1520003 	cmp	r2, r3
     4d0:	82833001 	addhi	r3, r3, #1
		adj = (adj & 0xffff) + (adj >> 16);
     4d4:	e1a02823 	lsr	r2, r3, #16
     4d8:	e6f23073 	uxtah	r3, r2, r3
		adj = (adj & 0xffff) + (adj >> 16);
     4dc:	e1a02823 	lsr	r2, r3, #16
     4e0:	e6f23073 	uxtah	r3, r2, r3
		cm->xlate_dest_csum_adjustment = (u16)adj;
     4e4:	e1c038be 	strh	r3, [r0, #142]	@ 0x8e
	}
}
     4e8:	e24bd028 	sub	sp, fp, #40	@ 0x28
     4ec:	e89daff0 	ldm	sp, {r4, r5, r6, r7, r8, r9, sl, fp, sp, pc}

000004f0 <sfe_ipv6_update_summary_stats>:
/*
 * sfe_ipv6_update_summary_stats()
 *	Update the summary stats.
 */
static void sfe_ipv6_update_summary_stats(struct sfe_ipv6 *si)
{
     4f0:	e1a0c00d 	mov	ip, sp
     4f4:	e92ddff0 	push	{r4, r5, r6, r7, r8, r9, sl, fp, ip, lr, pc}
     4f8:	e24cb004 	sub	fp, ip, #4
     4fc:	e24dd00c 	sub	sp, sp, #12
	int i;

	si->connection_create_requests64 += si->connection_create_requests;
     500:	e280e902 	add	lr, r0, #32768	@ 0x8000
     504:	e30810f0 	movw	r1, #33008	@ 0x80f0
     508:	e7903001 	ldr	r3, [r0, r1]
     50c:	e0804001 	add	r4, r0, r1
	si->connection_match_hash_hits = 0;
	si->connection_match_hash_reorders64 += si->connection_match_hash_reorders;
	si->connection_match_hash_reorders = 0;
	si->connection_flushes64 += si->connection_flushes;
	si->connection_flushes = 0;
	si->packets_forwarded64 += si->packets_forwarded;
     510:	e3086130 	movw	r6, #33072	@ 0x8130
	si->connection_create_requests64 += si->connection_create_requests;
     514:	e59e2030 	ldr	r2, [lr, #48]	@ 0x30
	si->connection_create_requests = 0;
     518:	e3087040 	movw	r7, #32832	@ 0x8040
     51c:	e3a08000 	mov	r8, #0
     520:	e3a09000 	mov	r9, #0
     524:	e28e5050 	add	r5, lr, #80	@ 0x50
     528:	e080a007 	add	sl, r0, r7
	si->connection_create_requests64 += si->connection_create_requests;
     52c:	e3a0c000 	mov	ip, #0
     530:	e0933002 	adds	r3, r3, r2
     534:	e5942004 	ldr	r2, [r4, #4]
     538:	e7803001 	str	r3, [r0, r1]
	si->connection_create_collisions64 += si->connection_create_collisions;
     53c:	e2803c81 	add	r3, r0, #33024	@ 0x8100
	si->connection_create_requests64 += si->connection_create_requests;
     540:	e2a22000 	adc	r2, r2, #0
     544:	e5842004 	str	r2, [r4, #4]
	si->connection_create_collisions64 += si->connection_create_collisions;
     548:	e9130014 	ldmdb	r3, {r2, r4}
     54c:	e59e1034 	ldr	r1, [lr, #52]	@ 0x34
     550:	e0922001 	adds	r2, r2, r1
	si->connection_destroy_requests64 += si->connection_destroy_requests;
     554:	e5931004 	ldr	r1, [r3, #4]
	si->connection_create_collisions64 += si->connection_create_collisions;
     558:	e2a44000 	adc	r4, r4, #0
     55c:	e9030014 	stmdb	r3, {r2, r4}
	si->connection_destroy_requests64 += si->connection_destroy_requests;
     560:	e5932000 	ldr	r2, [r3]
     564:	e59e4038 	ldr	r4, [lr, #56]	@ 0x38
     568:	e0922004 	adds	r2, r2, r4
	si->connection_destroy_misses64 += si->connection_destroy_misses;
     56c:	e3084110 	movw	r4, #33040	@ 0x8110
	si->connection_destroy_requests64 += si->connection_destroy_requests;
     570:	e2a11000 	adc	r1, r1, #0
     574:	e5832000 	str	r2, [r3]
     578:	e5831004 	str	r1, [r3, #4]
	si->connection_destroy_misses64 += si->connection_destroy_misses;
     57c:	e0803004 	add	r3, r0, r4
     580:	e59e103c 	ldr	r1, [lr, #60]	@ 0x3c
     584:	e5132008 	ldr	r2, [r3, #-8]
     588:	e0922001 	adds	r2, r2, r1
     58c:	e5032008 	str	r2, [r3, #-8]
     590:	e5132004 	ldr	r2, [r3, #-4]
     594:	e2a22000 	adc	r2, r2, #0
     598:	e5032004 	str	r2, [r3, #-4]
	si->connection_match_hash_hits64 += si->connection_match_hash_hits;
     59c:	e7902004 	ldr	r2, [r0, r4]
     5a0:	e59e1040 	ldr	r1, [lr, #64]	@ 0x40
     5a4:	e0922001 	adds	r2, r2, r1
     5a8:	e5931004 	ldr	r1, [r3, #4]
     5ac:	e7802004 	str	r2, [r0, r4]
	si->connection_match_hash_reorders64 += si->connection_match_hash_reorders;
     5b0:	e3084120 	movw	r4, #33056	@ 0x8120
	si->connection_match_hash_hits64 += si->connection_match_hash_hits;
     5b4:	e2a12000 	adc	r2, r1, #0
     5b8:	e5832004 	str	r2, [r3, #4]
	si->connection_match_hash_reorders64 += si->connection_match_hash_reorders;
     5bc:	e0803004 	add	r3, r0, r4
     5c0:	e59e1044 	ldr	r1, [lr, #68]	@ 0x44
     5c4:	e5132008 	ldr	r2, [r3, #-8]
     5c8:	e0922001 	adds	r2, r2, r1
     5cc:	e5032008 	str	r2, [r3, #-8]
     5d0:	e5132004 	ldr	r2, [r3, #-4]
     5d4:	e2a22000 	adc	r2, r2, #0
     5d8:	e5032004 	str	r2, [r3, #-4]
	si->connection_flushes64 += si->connection_flushes;
     5dc:	e7902004 	ldr	r2, [r0, r4]
     5e0:	e59e1048 	ldr	r1, [lr, #72]	@ 0x48
     5e4:	e0922001 	adds	r2, r2, r1
     5e8:	e5931004 	ldr	r1, [r3, #4]
     5ec:	e7802004 	str	r2, [r0, r4]
	si->packets_forwarded64 += si->packets_forwarded;
     5f0:	e0804006 	add	r4, r0, r6
	si->connection_flushes64 += si->connection_flushes;
     5f4:	e2a12000 	adc	r2, r1, #0
     5f8:	e2801c82 	add	r1, r0, #33280	@ 0x8200
     5fc:	e50b4030 	str	r4, [fp, #-48]	@ 0xffffffd0
     600:	e2811060 	add	r1, r1, #96	@ 0x60
     604:	e5832004 	str	r2, [r3, #4]
	si->packets_forwarded64 += si->packets_forwarded;
     608:	e5143008 	ldr	r3, [r4, #-8]
     60c:	e59e204c 	ldr	r2, [lr, #76]	@ 0x4c
     610:	e0933002 	adds	r3, r3, r2
     614:	e1a02005 	mov	r2, r5
     618:	e5043008 	str	r3, [r4, #-8]
     61c:	e5143004 	ldr	r3, [r4, #-4]
     620:	e2a33000 	adc	r3, r3, #0
     624:	e5043004 	str	r3, [r4, #-4]
	si->connection_create_requests = 0;
     628:	e3083030 	movw	r3, #32816	@ 0x8030
     62c:	e18080f3 	strd	r8, [r0, r3]
	si->packets_forwarded = 0;
	si->packets_not_forwarded64 += si->packets_not_forwarded;
	si->packets_not_forwarded = 0;
     630:	e1a03004 	mov	r3, r4
	si->connection_create_requests = 0;
     634:	e14a80f8 	strd	r8, [sl, #-8]
     638:	e18080f7 	strd	r8, [r0, r7]
     63c:	e14580f8 	strd	r8, [r5, #-8]
	si->packets_not_forwarded64 += si->packets_not_forwarded;
     640:	e7905006 	ldr	r5, [r0, r6]
     644:	e59e7050 	ldr	r7, [lr, #80]	@ 0x50
     648:	e0955007 	adds	r5, r5, r7
     64c:	e5947004 	ldr	r7, [r4, #4]
     650:	e7805006 	str	r5, [r0, r6]
     654:	e2a70000 	adc	r0, r7, #0
     658:	e5840004 	str	r0, [r4, #4]
	si->packets_not_forwarded = 0;
     65c:	e58ec050 	str	ip, [lr, #80]	@ 0x50

	for (i = 0; i < SFE_IPV6_EXCEPTION_EVENT_LAST; i++) {
		si->exception_events64[i] += si->exception_events[i];
     660:	e5b30008 	ldr	r0, [r3, #8]!
     664:	e5b24004 	ldr	r4, [r2, #4]!
     668:	e593e004 	ldr	lr, [r3, #4]
     66c:	e0900004 	adds	r0, r0, r4
     670:	e5830000 	str	r0, [r3]
     674:	e2ae0000 	adc	r0, lr, #0
	for (i = 0; i < SFE_IPV6_EXCEPTION_EVENT_LAST; i++) {
     678:	e1530001 	cmp	r3, r1
		si->exception_events64[i] += si->exception_events[i];
     67c:	e5830004 	str	r0, [r3, #4]
		si->exception_events[i] = 0;
     680:	e582c000 	str	ip, [r2]
	for (i = 0; i < SFE_IPV6_EXCEPTION_EVENT_LAST; i++) {
     684:	1afffff5 	bne	660 <sfe_ipv6_update_summary_stats+0x170>
	}
}
     688:	e24bd028 	sub	sp, fp, #40	@ 0x28
     68c:	e89daff0 	ldm	sp, {r4, r5, r6, r7, r8, r9, sl, fp, sp, pc}

00000690 <sfe_ipv6_debug_dev_read>:
/*
 * sfe_ipv6_debug_dev_read()
 *	Send info to userspace upon read request from user
 */
static ssize_t sfe_ipv6_debug_dev_read(struct file *filp, char *buffer, size_t length, loff_t *offset)
{
     690:	e1a0c00d 	mov	ip, sp
     694:	e92dd9f0 	push	{r4, r5, r6, r7, r8, fp, ip, lr, pc}
     698:	e24cb004 	sub	fp, ip, #4
     69c:	e24ddfc7 	sub	sp, sp, #796	@ 0x31c
	char msg[CHAR_DEV_MSG_SIZE];
	int total_read = 0;
	struct sfe_ipv6_debug_xml_write_state *ws;
	struct sfe_ipv6 *si = &__si6;

	ws = (struct sfe_ipv6_debug_xml_write_state *)filp->private_data;
     6a0:	e5904090 	ldr	r4, [r0, #144]	@ 0x90
	int total_read = 0;
     6a4:	e3a0c000 	mov	ip, #0
{
     6a8:	e50b2330 	str	r2, [fp, #-816]	@ 0xfffffcd0
     6ac:	e1a05001 	mov	r5, r1
	int total_read = 0;
     6b0:	e50bc328 	str	ip, [fp, #-808]	@ 0xfffffcd8
	while ((ws->state != SFE_IPV6_DEBUG_XML_STATE_DONE) && (length > CHAR_DEV_MSG_SIZE)) {
     6b4:	e5943000 	ldr	r3, [r4]
     6b8:	e3530009 	cmp	r3, #9
     6bc:	0a000017 	beq	720 <sfe_ipv6_debug_dev_read+0x90>
		if ((sfe_ipv6_debug_xml_write_methods[ws->state])(si, buffer, msg, &length, &total_read, ws)) {
     6c0:	e3007000 	movw	r7, #0
     6c4:	e3006000 	movw	r6, #0
     6c8:	e3407000 	movt	r7, #0
     6cc:	e3406000 	movt	r6, #0
     6d0:	ea000007 	b	6f4 <sfe_ipv6_debug_dev_read+0x64>
     6d4:	e59c8024 	ldr	r8, [ip, #36]	@ 0x24
     6d8:	e24bcfca 	sub	ip, fp, #808	@ 0x328
     6dc:	e58dc000 	str	ip, [sp]
     6e0:	e58d4004 	str	r4, [sp, #4]
     6e4:	e12fff38 	blx	r8
	while ((ws->state != SFE_IPV6_DEBUG_XML_STATE_DONE) && (length > CHAR_DEV_MSG_SIZE)) {
     6e8:	e5943000 	ldr	r3, [r4]
     6ec:	e3530009 	cmp	r3, #9
     6f0:	0a000007 	beq	714 <sfe_ipv6_debug_dev_read+0x84>
     6f4:	e51be330 	ldr	lr, [fp, #-816]	@ 0xfffffcd0
		if ((sfe_ipv6_debug_xml_write_methods[ws->state])(si, buffer, msg, &length, &total_read, ws)) {
     6f8:	e087c103 	add	ip, r7, r3, lsl #2
     6fc:	e24b2fc9 	sub	r2, fp, #804	@ 0x324
     700:	e24b3e33 	sub	r3, fp, #816	@ 0x330
     704:	e1a01005 	mov	r1, r5
     708:	e1a00006 	mov	r0, r6
	while ((ws->state != SFE_IPV6_DEBUG_XML_STATE_DONE) && (length > CHAR_DEV_MSG_SIZE)) {
     70c:	e35e0c03 	cmp	lr, #768	@ 0x300
     710:	8affffef 	bhi	6d4 <sfe_ipv6_debug_dev_read+0x44>
			continue;
		}
	}

	return total_read;
     714:	e51b0328 	ldr	r0, [fp, #-808]	@ 0xfffffcd8
}
     718:	e24bd020 	sub	sp, fp, #32
     71c:	e89da9f0 	ldm	sp, {r4, r5, r6, r7, r8, fp, sp, pc}
	while ((ws->state != SFE_IPV6_DEBUG_XML_STATE_DONE) && (length > CHAR_DEV_MSG_SIZE)) {
     720:	e1a0000c 	mov	r0, ip
     724:	eafffffb 	b	718 <sfe_ipv6_debug_dev_read+0x88>

00000728 <fast_classifier_nl_genl_msg_DUMP>:
 * fast_classifier_nl_genl_msg_DUMP()
 *	ignore fast_classifier_messages OFFLOADED and DONE
 */
static int fast_classifier_nl_genl_msg_DUMP(struct sk_buff *skb,
					    struct netlink_callback *cb)
{
     728:	e1a0c00d 	mov	ip, sp
     72c:	e92dd800 	push	{fp, ip, lr, pc}
     730:	e24cb004 	sub	fp, ip, #4
	return 0;
}
     734:	e3a00000 	mov	r0, #0
     738:	e24bd00c 	sub	sp, fp, #12
     73c:	e89da800 	ldm	sp, {fp, sp, pc}

00000740 <sfe_ipv4_process_tcp_option_sack>:
{
     740:	e1a0c00d 	mov	ip, sp
     744:	e92dd870 	push	{r4, r5, r6, fp, ip, lr, pc}
     748:	e24cb004 	sub	fp, ip, #4
	if (likely(data_offs == length + TCPOLEN_TIMESTAMP + 1 + 1)
     74c:	e3510020 	cmp	r1, #32
     750:	1a00000e 	bne	790 <sfe_ipv4_process_tcp_option_sack+0x50>
	    && likely(ptr[0] == TCPOPT_NOP)
     754:	e5d03014 	ldrb	r3, [r0, #20]
     758:	e3530001 	cmp	r3, #1
     75c:	1a00000d 	bne	798 <sfe_ipv4_process_tcp_option_sack+0x58>
	    && likely(ptr[1] == TCPOPT_NOP)
     760:	e5d03015 	ldrb	r3, [r0, #21]
     764:	e3530001 	cmp	r3, #1
     768:	1a00000a 	bne	798 <sfe_ipv4_process_tcp_option_sack+0x58>
	    && likely(ptr[2] == TCPOPT_TIMESTAMP)
     76c:	e5d03016 	ldrb	r3, [r0, #22]
     770:	e3530008 	cmp	r3, #8
     774:	1a000007 	bne	798 <sfe_ipv4_process_tcp_option_sack+0x58>
	    && likely(ptr[3] == TCPOLEN_TIMESTAMP)) {
     778:	e5d03017 	ldrb	r3, [r0, #23]
     77c:	e353000a 	cmp	r3, #10
     780:	1a000004 	bne	798 <sfe_ipv4_process_tcp_option_sack+0x58>
		return true;
     784:	e3a00001 	mov	r0, #1
}
     788:	e24bd018 	sub	sp, fp, #24
     78c:	e89da870 	ldm	sp, {r4, r5, r6, fp, sp, pc}
	while (length < data_offs) {
     790:	e3510014 	cmp	r1, #20
     794:	9afffffa 	bls	784 <sfe_ipv4_process_tcp_option_sack+0x44>
     798:	e3a03014 	mov	r3, #20
     79c:	ea000007 	b	7c0 <sfe_ipv4_process_tcp_option_sack+0x80>
		if (kind == TCPOPT_EOL) {
     7a0:	e35c0000 	cmp	ip, #0
     7a4:	0afffff6 	beq	784 <sfe_ipv4_process_tcp_option_sack+0x44>
		size = *(ptr + 1);
     7a8:	e5d5c001 	ldrb	ip, [r5, #1]
		if (size < 2) {
     7ac:	e35c0001 	cmp	ip, #1
     7b0:	9a000020 	bls	838 <sfe_ipv4_process_tcp_option_sack+0xf8>
		length += size;
     7b4:	e083300c 	add	r3, r3, ip
	while (length < data_offs) {
     7b8:	e1530001 	cmp	r3, r1
     7bc:	2afffff0 	bcs	784 <sfe_ipv4_process_tcp_option_sack+0x44>
		kind = *ptr;
     7c0:	e7d0c003 	ldrb	ip, [r0, r3]
		ptr = (u8 *)th + length;
     7c4:	e0805003 	add	r5, r0, r3
		if (kind == TCPOPT_NOP) {
     7c8:	e35c0001 	cmp	ip, #1
			length++;
     7cc:	02833001 	addeq	r3, r3, #1
		if (kind == TCPOPT_NOP) {
     7d0:	0afffff8 	beq	7b8 <sfe_ipv4_process_tcp_option_sack+0x78>
		if (kind == TCPOPT_SACK) {
     7d4:	e35c0005 	cmp	ip, #5
     7d8:	1afffff0 	bne	7a0 <sfe_ipv4_process_tcp_option_sack+0x60>
			size = *(ptr + 1);
     7dc:	e5d56001 	ldrb	r6, [r5, #1]
			if ((size < (1 + 1 + TCPOLEN_SACK_PERBLOCK))
     7e0:	e3560009 	cmp	r6, #9
     7e4:	9a000013 	bls	838 <sfe_ipv4_process_tcp_option_sack+0xf8>
			    || ((size - (1 + 1)) % (TCPOLEN_SACK_PERBLOCK))
     7e8:	e246e002 	sub	lr, r6, #2
     7ec:	e21ee007 	ands	lr, lr, #7
     7f0:	1a000010 	bne	838 <sfe_ipv4_process_tcp_option_sack+0xf8>
			    || (size > (data_offs - length))) {
     7f4:	e041c003 	sub	ip, r1, r3
     7f8:	e156000c 	cmp	r6, ip
     7fc:	8a00000d 	bhi	838 <sfe_ipv4_process_tcp_option_sack+0xf8>
			re += 4;
     800:	e3a0c006 	mov	ip, #6
				sack_re = (sptr[0] << 24) | (sptr[1] << 16) | (sptr[2] << 8) | sptr[3];
     804:	e795400c 	ldr	r4, [r5, ip]
     808:	e28cc008 	add	ip, ip, #8
     80c:	e6efc07c 	uxtb	ip, ip
     810:	e6bf4f34 	rev	r4, r4
				if (sack_re > sack) {
     814:	e15e0004 	cmp	lr, r4
     818:	31a0e004 	movcc	lr, r4
			while (re < size) {
     81c:	e156000c 	cmp	r6, ip
     820:	8afffff7 	bhi	804 <sfe_ipv4_process_tcp_option_sack+0xc4>
			if (sack > *ack) {
     824:	e592c000 	ldr	ip, [r2]
			length += size;
     828:	e0833006 	add	r3, r3, r6
			if (sack > *ack) {
     82c:	e15e000c 	cmp	lr, ip
				*ack = sack;
     830:	8582e000 	strhi	lr, [r2]
			continue;
     834:	eaffffdf 	b	7b8 <sfe_ipv4_process_tcp_option_sack+0x78>
				return false;
     838:	e3a00000 	mov	r0, #0
}
     83c:	e24bd018 	sub	sp, fp, #24
     840:	e89da870 	ldm	sp, {r4, r5, r6, fp, sp, pc}

00000844 <sfe_dev_get_master>:
/*
 * sfe_dev_get_master
 * 	get master of bridge port, and hold it
 */
static inline struct net_device *sfe_dev_get_master(struct net_device *dev)
{
     844:	e1a0c00d 	mov	ip, sp
     848:	e92dd800 	push	{fp, ip, lr, pc}
     84c:	e24cb004 	sub	fp, ip, #4
	struct net_device *master;
#if (LINUX_VERSION_CODE >= KERNEL_VERSION(3, 9, 0))
	rcu_read_lock();
	master = netdev_master_upper_dev_get_rcu(dev);
     850:	ebfffffe 	bl	0 <netdev_master_upper_dev_get_rcu>
	if (master)
     854:	e3500000 	cmp	r0, #0
     858:	0a000007 	beq	87c <sfe_dev_get_master+0x38>
#define arch_local_irq_save arch_local_irq_save
static inline unsigned long arch_local_irq_save(void)
{
	unsigned long flags;

	asm volatile(
     85c:	e10fc000 	mrs	ip, CPSR
     860:	f10c0080 	cpsid	i

static inline void __dev_hold(struct net_device *dev)
{
	if (dev) {
#ifdef CONFIG_PCPU_DEV_REFCNT
		this_cpu_inc(*dev->pcpu_refcnt);
     864:	e5903310 	ldr	r3, [r0, #784]	@ 0x310
	/*
	 * Read TPIDRPRW.
	 * We want to allow caching the value, so avoid using volatile and
	 * instead use a fake stack read to hazard against barrier().
	 */
	asm("0:	mrc p15, 0, %0, c13, c0, 4			\n\t"
     868:	ee1d1f90 	mrc	15, 0, r1, cr13, cr0, {4}
     86c:	e7932001 	ldr	r2, [r3, r1]
     870:	e2822001 	add	r2, r2, #1
     874:	e7832001 	str	r2, [r3, r1]
 * restore saved IRQ & FIQ state
 */
#define arch_local_irq_restore arch_local_irq_restore
static inline void arch_local_irq_restore(unsigned long flags)
{
	asm volatile(
     878:	e121f00c 	msr	CPSR_c, ip
	master = dev->master;
	if (master)
		dev_hold(master);
#endif
	return master;
}
     87c:	e24bd00c 	sub	sp, fp, #12
     880:	e89da800 	ldm	sp, {fp, sp, pc}

00000884 <sfe_ipv4_debug_dev_release>:

/*
 * sfe_ipv4_debug_dev_release()
 */
static int sfe_ipv4_debug_dev_release(struct inode *inode, struct file *file)
{
     884:	e1a0c00d 	mov	ip, sp
     888:	e92dd800 	push	{fp, ip, lr, pc}
     88c:	e24cb004 	sub	fp, ip, #4
	struct sfe_ipv4_debug_xml_write_state *ws;

	ws = (struct sfe_ipv4_debug_xml_write_state *)file->private_data;
     890:	e5910090 	ldr	r0, [r1, #144]	@ 0x90
	if (ws) {
     894:	e3500000 	cmp	r0, #0
     898:	0a000000 	beq	8a0 <sfe_ipv4_debug_dev_release+0x1c>
		/*
		 * We've finished with our output so free the write state.
		 */
		kfree(ws);
     89c:	ebfffffe 	bl	0 <kfree>
	}

	return 0;
}
     8a0:	e3a00000 	mov	r0, #0
     8a4:	e24bd00c 	sub	sp, fp, #12
     8a8:	e89da800 	ldm	sp, {fp, sp, pc}

000008ac <fast_classifier_send_genl_msg>:
{
     8ac:	e1a0c00d 	mov	ip, sp
     8b0:	e92dd9f0 	push	{r4, r5, r6, r7, r8, fp, ip, lr, pc}
     8b4:	e24cb004 	sub	fp, ip, #4
     8b8:	e24dd00c 	sub	sp, sp, #12
	buf_len = fast_classifier_gnl_family.hdrsize;
     8bc:	e3005000 	movw	r5, #0
 * This function is a convenient wrapper around __alloc_skb().
 */
static inline struct sk_buff *alloc_skb(unsigned int size,
					gfp_t priority)
{
	return __alloc_skb(size, priority, 0, NUMA_NO_NODE);
     8c0:	e3e03000 	mvn	r3, #0
     8c4:	e3405000 	movt	r5, #0
     8c8:	e3a02000 	mov	r2, #0
 * nlmsg_total_size - length of netlink message including padding
 * @payload: length of message payload
 */
static inline int nlmsg_total_size(int payload)
{
	return NLMSG_ALIGN(nlmsg_msg_size(payload));
     8cc:	e595c004 	ldr	ip, [r5, #4]
{
     8d0:	e1a06000 	mov	r6, r0
     8d4:	e1a07001 	mov	r7, r1
     8d8:	e3a01ea2 	mov	r1, #2592	@ 0xa20
     8dc:	e28cc04b 	add	ip, ip, #75	@ 0x4b
 * genlmsg_total_size - length of genetlink message including padding
 * @payload: length of message payload
 */
static inline int genlmsg_total_size(int payload)
{
	return NLMSG_ALIGN(genlmsg_msg_size(payload));
     8e0:	e3ccc003 	bic	ip, ip, #3
     8e4:	e28c0014 	add	r0, ip, #20
     8e8:	ebfffffe 	bl	0 <__alloc_skb>
	if (!skb)
     8ec:	e2504000 	subs	r4, r0, #0
     8f0:	0a00002b 	beq	9a4 <fast_classifier_send_genl_msg+0xf8>
	msg_head = genlmsg_put(skb, 0, 0, &fast_classifier_gnl_family, 0, msg);
     8f4:	e6ef3076 	uxtb	r3, r6
     8f8:	e3a02000 	mov	r2, #0
     8fc:	e1a01002 	mov	r1, r2
     900:	e1cd20f0 	strd	r2, [sp]
     904:	e1a03005 	mov	r3, r5
     908:	ebfffffe 	bl	0 <genlmsg_put>
	if (!msg_head) {
     90c:	e2508000 	subs	r8, r0, #0
     910:	0a00002b 	beq	9c4 <fast_classifier_send_genl_msg+0x118>
	rc = nla_put(skb, FAST_CLASSIFIER_A_TUPLE, sizeof(struct fast_classifier_tuple), fc_msg);
     914:	e3a02034 	mov	r2, #52	@ 0x34
     918:	e3a01001 	mov	r1, #1
     91c:	e1a03007 	mov	r3, r7
     920:	e1a00004 	mov	r0, r4
     924:	ebfffffe 	bl	0 <nla_put>
	if (rc != 0) {
     928:	e2502000 	subs	r2, r0, #0
		nlmsg_cancel(skb, hdr - GENL_HDRLEN - NLMSG_HDRLEN);
     92c:	e2481014 	sub	r1, r8, #20
     930:	1a00001d 	bne	9ac <fast_classifier_send_genl_msg+0x100>
 * attributes. Only necessary if attributes have been added to
 * the message.
 */
static inline void nlmsg_end(struct sk_buff *skb, struct nlmsghdr *nlh)
{
	nlh->nlmsg_len = skb_tail_pointer(skb) - (unsigned char *)nlh;
     934:	e59430a4 	ldr	r3, [r4, #164]	@ 0xa4
     938:	e0433001 	sub	r3, r3, r1
     93c:	e5083014 	str	r3, [r8, #-20]	@ 0xffffffec
	if (WARN_ON_ONCE(group >= family->n_mcgrps))
     940:	e5d53027 	ldrb	r3, [r5, #39]	@ 0x27
     944:	e3530000 	cmp	r3, #0
     948:	0a00002d 	beq	a04 <fast_classifier_send_genl_msg+0x158>
	group = family->mcgrp_offset + group;
     94c:	e5953020 	ldr	r3, [r5, #32]
{
	int err;

	NETLINK_CB(skb).dst_group = group;

	err = netlink_broadcast(sk, skb, portid, group, flags);
     950:	e3a0cea2 	mov	ip, #2592	@ 0xa20
	return nlmsg_multicast(net->genl_sock, skb, portid, group, flags);
     954:	e3001000 	movw	r1, #0
     958:	e3401000 	movt	r1, #0
     95c:	e59100a8 	ldr	r0, [r1, #168]	@ 0xa8
     960:	e1a01004 	mov	r1, r4
	NETLINK_CB(skb).dst_group = group;
     964:	e5843028 	str	r3, [r4, #40]	@ 0x28
	err = netlink_broadcast(sk, skb, portid, group, flags);
     968:	e58dc000 	str	ip, [sp]
     96c:	ebfffffe 	bl	0 <netlink_broadcast>
	switch (msg) {
     970:	e3560003 	cmp	r6, #3
     974:	1a000017 	bne	9d8 <fast_classifier_send_genl_msg+0x12c>
		if (rc == 0) {
     978:	e3500000 	cmp	r0, #0
     97c:	ba00002c 	blt	a34 <fast_classifier_send_genl_msg+0x188>

#if __LINUX_ARM_ARCH__ >= 7 && defined(CONFIG_SMP)
#define ARCH_HAS_PREFETCHW
static inline void prefetchw(const void *ptr)
{
	__asm__ __volatile__(
     980:	e3003000 	movw	r3, #0
     984:	e3403000 	movt	r3, #0
     988:	e2832008 	add	r2, r3, #8
     98c:	f592f000 	pldw	[r2]
#define ATOMIC_OPS(op, c_op, asm_op)					\
	ATOMIC_OP(op, c_op, asm_op)					\
	ATOMIC_OP_RETURN(op, c_op, asm_op)				\
	ATOMIC_FETCH_OP(op, c_op, asm_op)

ATOMIC_OPS(add, +=, add)
     990:	e1921f9f 	ldrex	r1, [r2]
     994:	e2811001 	add	r1, r1, #1
     998:	e1820f91 	strex	r0, r1, [r2]
     99c:	e3300000 	teq	r0, #0
     9a0:	1afffffa 	bne	990 <fast_classifier_send_genl_msg+0xe4>
}
     9a4:	e24bd020 	sub	sp, fp, #32
     9a8:	e89da9f0 	ldm	sp, {r4, r5, r6, r7, r8, fp, sp, pc}
	if (mark) {
     9ac:	e3510000 	cmp	r1, #0
     9b0:	0a000003 	beq	9c4 <fast_classifier_send_genl_msg+0x118>
		skb_trim(skb, (unsigned char *) mark - skb->data);
     9b4:	e59430b0 	ldr	r3, [r4, #176]	@ 0xb0
     9b8:	e1a00004 	mov	r0, r4
     9bc:	e0411003 	sub	r1, r1, r3
     9c0:	ebfffffe 	bl	0 <skb_trim>
	kfree_skb_reason(skb, SKB_DROP_REASON_NOT_SPECIFIED);
     9c4:	e3a01001 	mov	r1, #1
     9c8:	e1a00004 	mov	r0, r4
     9cc:	ebfffffe 	bl	0 <kfree_skb_reason>
     9d0:	e24bd020 	sub	sp, fp, #32
     9d4:	e89da9f0 	ldm	sp, {r4, r5, r6, r7, r8, fp, sp, pc}
		if (rc == 0) {
     9d8:	e3500000 	cmp	r0, #0
     9dc:	ba00000a 	blt	a0c <fast_classifier_send_genl_msg+0x160>
     9e0:	e3003000 	movw	r3, #0
     9e4:	e3403000 	movt	r3, #0
     9e8:	f593f000 	pldw	[r3]
     9ec:	e1932f9f 	ldrex	r2, [r3]
     9f0:	e2822001 	add	r2, r2, #1
     9f4:	e1831f92 	strex	r1, r2, [r3]
     9f8:	e3310000 	teq	r1, #0
     9fc:	1afffffa 	bne	9ec <fast_classifier_send_genl_msg+0x140>
     a00:	eaffffe7 	b	9a4 <fast_classifier_send_genl_msg+0xf8>
	switch (msg) {
     a04:	e3560003 	cmp	r6, #3
     a08:	0a000009 	beq	a34 <fast_classifier_send_genl_msg+0x188>
     a0c:	e3003000 	movw	r3, #0
     a10:	e3403000 	movt	r3, #0
     a14:	e2832004 	add	r2, r3, #4
     a18:	f592f000 	pldw	[r2]
     a1c:	e1921f9f 	ldrex	r1, [r2]
     a20:	e2811001 	add	r1, r1, #1
     a24:	e1820f91 	strex	r0, r1, [r2]
     a28:	e3300000 	teq	r0, #0
     a2c:	1afffffa 	bne	a1c <fast_classifier_send_genl_msg+0x170>
     a30:	eaffffdb 	b	9a4 <fast_classifier_send_genl_msg+0xf8>
     a34:	e3003000 	movw	r3, #0
     a38:	e3403000 	movt	r3, #0
     a3c:	e283200c 	add	r2, r3, #12
     a40:	f592f000 	pldw	[r2]
     a44:	e1921f9f 	ldrex	r1, [r2]
     a48:	e2811001 	add	r1, r1, #1
     a4c:	e1820f91 	strex	r0, r1, [r2]
     a50:	e3300000 	teq	r0, #0
     a54:	1afffffa 	bne	a44 <fast_classifier_send_genl_msg+0x198>
     a58:	eaffffd1 	b	9a4 <fast_classifier_send_genl_msg+0xf8>

00000a5c <sfe_ipv4_debug_dev_open>:
{
     a5c:	e1a0c00d 	mov	ip, sp
     a60:	e92dd830 	push	{r4, r5, fp, ip, lr, pc}
     a64:	e24cb004 	sub	fp, ip, #4
	if (!ws) {
     a68:	e5915090 	ldr	r5, [r1, #144]	@ 0x90
{
     a6c:	e1a04001 	mov	r4, r1
	if (!ws) {
     a70:	e3550000 	cmp	r5, #0
     a74:	0a000002 	beq	a84 <sfe_ipv4_debug_dev_open+0x28>
	return 0;
     a78:	e3a00000 	mov	r0, #0
}
     a7c:	e24bd014 	sub	sp, fp, #20
     a80:	e89da830 	ldm	sp, {r4, r5, fp, sp, pc}
		index = kmalloc_index(size);

		if (!index)
			return ZERO_SIZE_PTR;

		return kmalloc_trace(
     a84:	e3003000 	movw	r3, #0
     a88:	e3a02008 	mov	r2, #8
     a8c:	e3403000 	movt	r3, #0
     a90:	e3a01d37 	mov	r1, #3520	@ 0xdc0
     a94:	e5930018 	ldr	r0, [r3, #24]
     a98:	ebfffffe 	bl	0 <kmalloc_trace>
		if (!ws) {
     a9c:	e3500000 	cmp	r0, #0
     aa0:	0a000002 	beq	ab0 <sfe_ipv4_debug_dev_open+0x54>
		ws->state = SFE_IPV4_DEBUG_XML_STATE_START;
     aa4:	e5805000 	str	r5, [r0]
		file->private_data = ws;
     aa8:	e5840090 	str	r0, [r4, #144]	@ 0x90
     aac:	eafffff1 	b	a78 <sfe_ipv4_debug_dev_open+0x1c>
			return -ENOMEM;
     ab0:	e3e0000b 	mvn	r0, #11
     ab4:	eafffff0 	b	a7c <sfe_ipv4_debug_dev_open+0x20>

00000ab8 <sfe_ipv6_debug_dev_open>:

/*
 * sfe_ipv6_debug_dev_open()
 */
static int sfe_ipv6_debug_dev_open(struct inode *inode, struct file *file)
{
     ab8:	e1a0c00d 	mov	ip, sp
     abc:	e92dd830 	push	{r4, r5, fp, ip, lr, pc}
     ac0:	e24cb004 	sub	fp, ip, #4
	struct sfe_ipv6_debug_xml_write_state *ws;

	ws = (struct sfe_ipv6_debug_xml_write_state *)file->private_data;
	if (ws) {
     ac4:	e5915090 	ldr	r5, [r1, #144]	@ 0x90
{
     ac8:	e1a04001 	mov	r4, r1
	if (ws) {
     acc:	e3550000 	cmp	r5, #0
     ad0:	0a000002 	beq	ae0 <sfe_ipv6_debug_dev_open+0x28>
		return 0;
     ad4:	e3a00000 	mov	r0, #0

	ws->state = SFE_IPV6_DEBUG_XML_STATE_START;
	file->private_data = ws;

	return 0;
}
     ad8:	e24bd014 	sub	sp, fp, #20
     adc:	e89da830 	ldm	sp, {r4, r5, fp, sp, pc}
     ae0:	e3003000 	movw	r3, #0
     ae4:	e3a02008 	mov	r2, #8
     ae8:	e3403000 	movt	r3, #0
     aec:	e3a01d37 	mov	r1, #3520	@ 0xdc0
     af0:	e5930018 	ldr	r0, [r3, #24]
     af4:	ebfffffe 	bl	0 <kmalloc_trace>
	if (!ws) {
     af8:	e3500000 	cmp	r0, #0
     afc:	0a000002 	beq	b0c <sfe_ipv6_debug_dev_open+0x54>
	ws->state = SFE_IPV6_DEBUG_XML_STATE_START;
     b00:	e5805000 	str	r5, [r0]
	file->private_data = ws;
     b04:	e5840090 	str	r0, [r4, #144]	@ 0x90
	return 0;
     b08:	eafffff1 	b	ad4 <sfe_ipv6_debug_dev_open+0x1c>
		return -ENOMEM;
     b0c:	e3e0000b 	mvn	r0, #11
     b10:	eafffff0 	b	ad8 <sfe_ipv6_debug_dev_open+0x20>

00000b14 <fast_classifier_get_defunct_all>:
 * 	dump state of SFE
 */
static ssize_t fast_classifier_get_defunct_all(struct device *dev,
                                      struct device_attribute *attr,
                                      char *buf)
{
     b14:	e1a0c00d 	mov	ip, sp
     b18:	e92dd800 	push	{fp, ip, lr, pc}
     b1c:	e24cb004 	sub	fp, ip, #4
     b20:	e1a00002 	mov	r0, r2
	return snprintf(buf, (ssize_t)PAGE_SIZE, "%d\n", 0);
     b24:	e3002000 	movw	r2, #0
     b28:	e3a03000 	mov	r3, #0
     b2c:	e3402000 	movt	r2, #0
     b30:	e3a01a01 	mov	r1, #4096	@ 0x1000
     b34:	ebfffffe 	bl	0 <snprintf>
}
     b38:	e3a00002 	mov	r0, #2
     b3c:	e24bd00c 	sub	sp, fp, #12
     b40:	e89da800 	ldm	sp, {fp, sp, pc}

00000b44 <fast_classifier_get_stop>:
{
     b44:	e1a0c00d 	mov	ip, sp
     b48:	e92dd800 	push	{fp, ip, lr, pc}
     b4c:	e24cb004 	sub	fp, ip, #4
     b50:	e1a00002 	mov	r0, r2
	fast_recv = rcu_dereference(fast_nat_recv);
     b54:	e3003000 	movw	r3, #0
     b58:	e3403000 	movt	r3, #0
     b5c:	e5933000 	ldr	r3, [r3]
	return snprintf(buf, (ssize_t)PAGE_SIZE, "%d\n", fast_recv ? 0 : 1);
     b60:	e3002000 	movw	r2, #0
     b64:	e16f3f13 	clz	r3, r3
     b68:	e1a032a3 	lsr	r3, r3, #5
     b6c:	e3a01a01 	mov	r1, #4096	@ 0x1000
     b70:	e3402000 	movt	r2, #0
     b74:	ebfffffe 	bl	0 <snprintf>
}
     b78:	e3a00002 	mov	r0, #2
     b7c:	e24bd00c 	sub	sp, fp, #12
     b80:	e89da800 	ldm	sp, {fp, sp, pc}

00000b84 <fast_classifier_get_skip_bridge_ingress>:
{
     b84:	e1a0c00d 	mov	ip, sp
     b88:	e92dd800 	push	{fp, ip, lr, pc}
     b8c:	e24cb004 	sub	fp, ip, #4
	return snprintf(buf, (ssize_t)PAGE_SIZE, "%d\n", skip_to_bridge_ingress);
     b90:	e3003000 	movw	r3, #0
{
     b94:	e1a00002 	mov	r0, r2
	return snprintf(buf, (ssize_t)PAGE_SIZE, "%d\n", skip_to_bridge_ingress);
     b98:	e3403000 	movt	r3, #0
     b9c:	e3002000 	movw	r2, #0
     ba0:	e5d33010 	ldrb	r3, [r3, #16]
     ba4:	e3402000 	movt	r2, #0
     ba8:	e3a01a01 	mov	r1, #4096	@ 0x1000
     bac:	ebfffffe 	bl	0 <snprintf>
}
     bb0:	e3a00002 	mov	r0, #2
     bb4:	e24bd00c 	sub	sp, fp, #12
     bb8:	e89da800 	ldm	sp, {fp, sp, pc}

00000bbc <fast_classifier_get_offload_at_pkts>:
{
     bbc:	e1a0c00d 	mov	ip, sp
     bc0:	e92dd800 	push	{fp, ip, lr, pc}
     bc4:	e24cb004 	sub	fp, ip, #4
	return snprintf(buf, (ssize_t)PAGE_SIZE, "%d\n", offload_at_pkts);
     bc8:	e3003000 	movw	r3, #0
{
     bcc:	e1a00002 	mov	r0, r2
	return snprintf(buf, (ssize_t)PAGE_SIZE, "%d\n", offload_at_pkts);
     bd0:	e3403000 	movt	r3, #0
     bd4:	e3002000 	movw	r2, #0
     bd8:	e5933048 	ldr	r3, [r3, #72]	@ 0x48
     bdc:	e3402000 	movt	r2, #0
     be0:	e3a01a01 	mov	r1, #4096	@ 0x1000
     be4:	ebfffffe 	bl	0 <snprintf>
}
     be8:	e24bd00c 	sub	sp, fp, #12
     bec:	e89da800 	ldm	sp, {fp, sp, pc}

00000bf0 <sfe_ipv4_get_debug_dev>:
{
     bf0:	e1a0c00d 	mov	ip, sp
     bf4:	e92dd830 	push	{r4, r5, fp, ip, lr, pc}
     bf8:	e24cb004 	sub	fp, ip, #4
	raw_spin_lock(&lock->rlock);
}

static __always_inline void spin_lock_bh(spinlock_t *lock)
{
	raw_spin_lock_bh(&lock->rlock);
     bfc:	e3004000 	movw	r4, #0
     c00:	e1a05002 	mov	r5, r2
     c04:	e3404000 	movt	r4, #0
     c08:	e1a00004 	mov	r0, r4
     c0c:	ebfffffe 	bl	0 <_raw_spin_lock_bh>
	num = si->debug_dev;
     c10:	e2843902 	add	r3, r4, #32768	@ 0x8000
	raw_spin_unlock(&lock->rlock);
}

static __always_inline void spin_unlock_bh(spinlock_t *lock)
{
	raw_spin_unlock_bh(&lock->rlock);
     c14:	e1a00004 	mov	r0, r4
     c18:	e593425c 	ldr	r4, [r3, #604]	@ 0x25c
     c1c:	ebfffffe 	bl	0 <_raw_spin_unlock_bh>
	count = snprintf(buf, (ssize_t)PAGE_SIZE, "%d\n", num);
     c20:	e3002000 	movw	r2, #0
     c24:	e3a01a01 	mov	r1, #4096	@ 0x1000
     c28:	e1a00005 	mov	r0, r5
     c2c:	e3402000 	movt	r2, #0
     c30:	e1a03004 	mov	r3, r4
     c34:	ebfffffe 	bl	0 <snprintf>
}
     c38:	e24bd014 	sub	sp, fp, #20
     c3c:	e89da830 	ldm	sp, {r4, r5, fp, sp, pc}

00000c40 <sfe_ipv6_get_debug_dev>:
{
     c40:	e1a0c00d 	mov	ip, sp
     c44:	e92dd830 	push	{r4, r5, fp, ip, lr, pc}
     c48:	e24cb004 	sub	fp, ip, #4
	raw_spin_lock_bh(&lock->rlock);
     c4c:	e3004000 	movw	r4, #0
     c50:	e1a05002 	mov	r5, r2
     c54:	e3404000 	movt	r4, #0
     c58:	e1a00004 	mov	r0, r4
     c5c:	ebfffffe 	bl	0 <_raw_spin_lock_bh>
	num = si->debug_dev;
     c60:	e2843902 	add	r3, r4, #32768	@ 0x8000
	raw_spin_unlock_bh(&lock->rlock);
     c64:	e1a00004 	mov	r0, r4
     c68:	e593426c 	ldr	r4, [r3, #620]	@ 0x26c
     c6c:	ebfffffe 	bl	0 <_raw_spin_unlock_bh>
	count = snprintf(buf, (ssize_t)PAGE_SIZE, "%d\n", num);
     c70:	e3002000 	movw	r2, #0
     c74:	e3a01a01 	mov	r1, #4096	@ 0x1000
     c78:	e1a00005 	mov	r0, r5
     c7c:	e3402000 	movt	r2, #0
     c80:	e1a03004 	mov	r3, r4
     c84:	ebfffffe 	bl	0 <snprintf>
}
     c88:	e24bd014 	sub	sp, fp, #20
     c8c:	e89da830 	ldm	sp, {r4, r5, fp, sp, pc}

00000c90 <fast_classifier_set_skip_bridge_ingress>:
{
     c90:	e1a0c00d 	mov	ip, sp
     c94:	e92dd810 	push	{r4, fp, ip, lr, pc}
     c98:	e24cb004 	sub	fp, ip, #4
     c9c:	e24dd00c 	sub	sp, sp, #12
     ca0:	e1a00002 	mov	r0, r2
	 */
	if (sizeof(long) == sizeof(long long) &&
	    __alignof__(long) == __alignof__(long long))
		return kstrtoll(s, base, (long long *)res);
	else
		return _kstrtol(s, base, res);
     ca4:	e3a01000 	mov	r1, #0
     ca8:	e24b2018 	sub	r2, fp, #24
     cac:	e1a04003 	mov	r4, r3
     cb0:	ebfffffe 	bl	0 <_kstrtol>
	if (ret == -EINVAL || ((int)new != new))
     cb4:	e3700016 	cmn	r0, #22
     cb8:	0a000006 	beq	cd8 <fast_classifier_set_skip_bridge_ingress+0x48>
	skip_to_bridge_ingress = new ? 1 : 0;
     cbc:	e51b2018 	ldr	r2, [fp, #-24]	@ 0xffffffe8
     cc0:	e3003000 	movw	r3, #0
	return size;
     cc4:	e1a00004 	mov	r0, r4
	skip_to_bridge_ingress = new ? 1 : 0;
     cc8:	e3403000 	movt	r3, #0
     ccc:	e2522000 	subs	r2, r2, #0
     cd0:	13a02001 	movne	r2, #1
     cd4:	e5c32010 	strb	r2, [r3, #16]
}
     cd8:	e24bd010 	sub	sp, fp, #16
     cdc:	e89da810 	ldm	sp, {r4, fp, sp, pc}

00000ce0 <fast_classifier_set_offload_at_pkts>:
{
     ce0:	e1a0c00d 	mov	ip, sp
     ce4:	e92dd810 	push	{r4, fp, ip, lr, pc}
     ce8:	e24cb004 	sub	fp, ip, #4
     cec:	e24dd00c 	sub	sp, sp, #12
     cf0:	e1a00002 	mov	r0, r2
     cf4:	e3a01000 	mov	r1, #0
     cf8:	e24b2018 	sub	r2, fp, #24
     cfc:	e1a04003 	mov	r4, r3
     d00:	ebfffffe 	bl	0 <_kstrtol>
	if (ret == -EINVAL || ((int)new != new))
     d04:	e3700016 	cmn	r0, #22
     d08:	0a000004 	beq	d20 <fast_classifier_set_offload_at_pkts+0x40>
	offload_at_pkts = new;
     d0c:	e51b2018 	ldr	r2, [fp, #-24]	@ 0xffffffe8
     d10:	e3003000 	movw	r3, #0
	return size;
     d14:	e1a00004 	mov	r0, r4
	offload_at_pkts = new;
     d18:	e3403000 	movt	r3, #0
     d1c:	e5832048 	str	r2, [r3, #72]	@ 0x48
}
     d20:	e24bd010 	sub	sp, fp, #16
     d24:	e89da810 	ldm	sp, {r4, fp, sp, pc}

00000d28 <fast_classifier_get_debug_info>:
{
     d28:	e1a0c00d 	mov	ip, sp
     d2c:	e92ddff0 	push	{r4, r5, r6, r7, r8, r9, sl, fp, ip, lr, pc}
     d30:	e24cb004 	sub	fp, ip, #4
     d34:	e24dd02c 	sub	sp, sp, #44	@ 0x2c
	raw_spin_lock_bh(&lock->rlock);
     d38:	e3004000 	movw	r4, #0
     d3c:	e1a06002 	mov	r6, r2
     d40:	e59f9118 	ldr	r9, [pc, #280]	@ e60 <fast_classifier_get_debug_info+0x138>
     d44:	e3404000 	movt	r4, #0
		len += scnprintf(buf + len, PAGE_SIZE - len,
     d48:	e3008000 	movw	r8, #0
     d4c:	e2840014 	add	r0, r4, #20
     d50:	e3007000 	movw	r7, #0
     d54:	ebfffffe 	bl	0 <_raw_spin_lock_bh>

static __always_inline int
atomic_read(const atomic_t *v)
{
	instrument_atomic_read(v, sizeof(*v));
	return arch_atomic_read(v);
     d58:	e5943018 	ldr	r3, [r4, #24]
     d5c:	e3408000 	movt	r8, #0
     d60:	e3407000 	movt	r7, #0
     d64:	e289a902 	add	sl, r9, #32768	@ 0x8000
	len += scnprintf(buf, PAGE_SIZE - len, "size=%d offload=%d offload_no_match=%d"
     d68:	e58d3000 	str	r3, [sp]
     d6c:	e594301c 	ldr	r3, [r4, #28]
     d70:	e58d3004 	str	r3, [sp, #4]
     d74:	e5942000 	ldr	r2, [r4]
     d78:	e5940008 	ldr	r0, [r4, #8]
     d7c:	e5941004 	ldr	r1, [r4, #4]
     d80:	e594c00c 	ldr	ip, [r4, #12]
     d84:	e5943020 	ldr	r3, [r4, #32]
     d88:	e58d2008 	str	r2, [sp, #8]
     d8c:	e3002000 	movw	r2, #0
     d90:	e3402000 	movt	r2, #0
     d94:	e1cd00fc 	strd	r0, [sp, #12]
     d98:	e3a01a01 	mov	r1, #4096	@ 0x1000
     d9c:	e1a00006 	mov	r0, r6
     da0:	e58dc014 	str	ip, [sp, #20]
     da4:	ebfffffe 	bl	0 <scnprintf>
     da8:	e1a05000 	mov	r5, r0
	sfe_hash_for_each(fc_conn_ht, i, node, conn, hl) {
     dac:	e5b94004 	ldr	r4, [r9, #4]!
     db0:	e3540000 	cmp	r4, #0
     db4:	0a000022 	beq	e44 <fast_classifier_get_debug_info+0x11c>
				conn->sic->protocol,
     db8:	e5940008 	ldr	r0, [r4, #8]
		len += scnprintf(buf + len, PAGE_SIZE - len,
     dbc:	e594e010 	ldr	lr, [r4, #16]
     dc0:	e5943018 	ldr	r3, [r4, #24]
     dc4:	e5d4201c 	ldrb	r2, [r4, #28]
				ntohs(conn->sic->src_port),
     dc8:	e1d015b8 	ldrh	r1, [r0, #88]	@ 0x58
				ntohs(conn->sic->dest_port),
     dcc:	e1d0c5bc 	ldrh	ip, [r0, #92]	@ 0x5c
		len += scnprintf(buf + len, PAGE_SIZE - len,
     dd0:	e58de020 	str	lr, [sp, #32]
     dd4:	e590e098 	ldr	lr, [r0, #152]	@ 0x98
     dd8:	e3520000 	cmp	r2, #0
				ntohs(conn->sic->src_port),
     ddc:	e6bf1fb1 	rev16	r1, r1
		len += scnprintf(buf + len, PAGE_SIZE - len,
     de0:	01a02008 	moveq	r2, r8
				ntohs(conn->sic->dest_port),
     de4:	e6bfcfbc 	rev16	ip, ip
				ntohs(conn->sic->src_port),
     de8:	e6ff1071 	uxth	r1, r1
				ntohs(conn->sic->dest_port),
     dec:	e6ffc07c 	uxth	ip, ip
		len += scnprintf(buf + len, PAGE_SIZE - len,
     df0:	11a02007 	movne	r2, r7
     df4:	e58d100c 	str	r1, [sp, #12]
     df8:	e2801018 	add	r1, r0, #24
     dfc:	e58de01c 	str	lr, [sp, #28]
				conn->sic->dest_mac_xlate,
     e00:	e280e072 	add	lr, r0, #114	@ 0x72
		len += scnprintf(buf + len, PAGE_SIZE - len,
     e04:	e58d1008 	str	r1, [sp, #8]
     e08:	e2651a01 	rsb	r1, r5, #4096	@ 0x1000
     e0c:	e58dc014 	str	ip, [sp, #20]
     e10:	e280c038 	add	ip, r0, #56	@ 0x38
     e14:	e58de018 	str	lr, [sp, #24]
				conn->sic->src_mac,
     e18:	e280e060 	add	lr, r0, #96	@ 0x60
		len += scnprintf(buf + len, PAGE_SIZE - len,
     e1c:	e58de004 	str	lr, [sp, #4]
     e20:	e58dc010 	str	ip, [sp, #16]
     e24:	e590c000 	ldr	ip, [r0]
     e28:	e0860005 	add	r0, r6, r5
     e2c:	e58dc000 	str	ip, [sp]
     e30:	ebfffffe 	bl	0 <scnprintf>
	sfe_hash_for_each(fc_conn_ht, i, node, conn, hl) {
     e34:	e5944000 	ldr	r4, [r4]
		len += scnprintf(buf + len, PAGE_SIZE - len,
     e38:	e0855000 	add	r5, r5, r0
	sfe_hash_for_each(fc_conn_ht, i, node, conn, hl) {
     e3c:	e3540000 	cmp	r4, #0
     e40:	1affffdc 	bne	db8 <fast_classifier_get_debug_info+0x90>
     e44:	e15a0009 	cmp	sl, r9
     e48:	1affffd7 	bne	dac <fast_classifier_get_debug_info+0x84>
	raw_spin_unlock_bh(&lock->rlock);
     e4c:	e59f0010 	ldr	r0, [pc, #16]	@ e64 <fast_classifier_get_debug_info+0x13c>
     e50:	ebfffffe 	bl	0 <_raw_spin_unlock_bh>
}
     e54:	e1a00005 	mov	r0, r5
     e58:	e24bd028 	sub	sp, fp, #40	@ 0x28
     e5c:	e89daff0 	ldm	sp, {r4, r5, r6, r7, r8, r9, sl, fp, sp, pc}
     e60:	0000004c 	.word	0x0000004c
     e64:	00000014 	.word	0x00000014

00000e68 <sfe_addr_equal.part.0>:
 * sfe_addr_equal()
 *	compare ipv4 or ipv6 address
 *
 * return: 1, equal; 0, no equal
 */
static inline int sfe_addr_equal(sfe_ip_addr_t *a,
     e68:	e1a0c00d 	mov	ip, sp
     e6c:	e92dd800 	push	{fp, ip, lr, pc}
     e70:	e24cb004 	sub	fp, ip, #4
	       a->addr[2] == b->addr[2] &&
     e74:	e5902000 	ldr	r2, [r0]
     e78:	e5913000 	ldr	r3, [r1]
     e7c:	e1520003 	cmp	r2, r3
     e80:	0a000002 	beq	e90 <sfe_addr_equal.part.0+0x28>
     e84:	e3a00000 	mov	r0, #0
				 sfe_ip_addr_t *b, int is_v4)
{
	return is_v4 ? sfe_ipv4_addr_equal(a->ip, b->ip) : sfe_ipv6_addr_equal(a->ip6, b->ip6);
}
     e88:	e24bd00c 	sub	sp, fp, #12
     e8c:	e89da800 	ldm	sp, {fp, sp, pc}
	return a->addr[0] == b->addr[0] &&
     e90:	e5902004 	ldr	r2, [r0, #4]
     e94:	e5913004 	ldr	r3, [r1, #4]
     e98:	e1520003 	cmp	r2, r3
     e9c:	1afffff8 	bne	e84 <sfe_addr_equal.part.0+0x1c>
	       a->addr[1] == b->addr[1] &&
     ea0:	e5902008 	ldr	r2, [r0, #8]
     ea4:	e5913008 	ldr	r3, [r1, #8]
     ea8:	e1520003 	cmp	r2, r3
     eac:	1afffff4 	bne	e84 <sfe_addr_equal.part.0+0x1c>
	       a->addr[2] == b->addr[2] &&
     eb0:	e590000c 	ldr	r0, [r0, #12]
     eb4:	e591300c 	ldr	r3, [r1, #12]
     eb8:	e0400003 	sub	r0, r0, r3
     ebc:	e16f0f10 	clz	r0, r0
     ec0:	e1a002a0 	lsr	r0, r0, #5
     ec4:	eaffffef 	b	e88 <sfe_addr_equal.part.0+0x20>

00000ec8 <fast_classifier_set_stop>:
{
     ec8:	e1a0c00d 	mov	ip, sp
     ecc:	e92dd810 	push	{r4, fp, ip, lr, pc}
     ed0:	e24cb004 	sub	fp, ip, #4
     ed4:	e24dd00c 	sub	sp, sp, #12
     ed8:	e1a00002 	mov	r0, r2
	return kstrtoll(s, base, res);
}

static inline int __must_check kstrtou32(const char *s, unsigned int base, u32 *res)
{
	return kstrtouint(s, base, res);
     edc:	e3a01000 	mov	r1, #0
     ee0:	e24b2018 	sub	r2, fp, #24
     ee4:	e1a04003 	mov	r4, r3
     ee8:	ebfffffe 	bl	0 <kstrtouint>
	if (ret)
     eec:	e3500000 	cmp	r0, #0
     ef0:	1a000008 	bne	f18 <fast_classifier_set_stop+0x50>
	if (num) {
     ef4:	e51b3018 	ldr	r3, [fp, #-24]	@ 0xffffffe8
     ef8:	e3530000 	cmp	r3, #0
     efc:	1a000007 	bne	f20 <fast_classifier_set_stop+0x58>
		fast_recv = rcu_dereference(fast_nat_recv);
     f00:	e3003000 	movw	r3, #0
     f04:	e3403000 	movt	r3, #0
     f08:	e5932000 	ldr	r2, [r3]
		if (!fast_recv) {
     f0c:	e3520000 	cmp	r2, #0
     f10:	0a000006 	beq	f30 <fast_classifier_set_stop+0x68>
	return count;
     f14:	e1a00004 	mov	r0, r4
}
     f18:	e24bd010 	sub	sp, fp, #16
     f1c:	e89da810 	ldm	sp, {r4, fp, sp, pc}
		RCU_INIT_POINTER(fast_nat_recv, NULL);
     f20:	e3003000 	movw	r3, #0
     f24:	e3403000 	movt	r3, #0
     f28:	e5830000 	str	r0, [r3]
     f2c:	eafffff8 	b	f14 <fast_classifier_set_stop+0x4c>
			BUG_ON(fast_nat_recv);
     f30:	e5932000 	ldr	r2, [r3]
     f34:	e3520000 	cmp	r2, #0
			RCU_INIT_POINTER(fast_nat_recv, fast_classifier_recv);
     f38:	03002000 	movweq	r2, #0
     f3c:	03402000 	movteq	r2, #0
     f40:	05832000 	streq	r2, [r3]
			BUG_ON(fast_nat_recv);
     f44:	0afffff2 	beq	f14 <fast_classifier_set_stop+0x4c>
     f48:	e7f001f2 	.word	0xe7f001f2

00000f4c <sfe_ipv6_find_connection_match.constprop.0>:
sfe_ipv6_find_connection_match(struct sfe_ipv6 *si, struct net_device *dev, u8 protocol,
     f4c:	e1a0c00d 	mov	ip, sp
     f50:	e92ddff0 	push	{r4, r5, r6, r7, r8, r9, sl, fp, ip, lr, pc}
     f54:	e24cb004 	sub	fp, ip, #4
     f58:	e24dd01c 	sub	sp, sp, #28
     f5c:	e59bc004 	ldr	ip, [fp, #4]
     f60:	e50b0030 	str	r0, [fp, #-48]	@ 0xffffffd0
		hash ^= src_ip->addr[idx] ^ dest_ip->addr[idx];
     f64:	e1c260d0 	ldrd	r6, [r2]
     f68:	e1c280d8 	ldrd	r8, [r2, #8]
sfe_ipv6_find_connection_match(struct sfe_ipv6 *si, struct net_device *dev, u8 protocol,
     f6c:	e1dbe0b8 	ldrh	lr, [fp, #8]
		hash ^= src_ip->addr[idx] ^ dest_ip->addr[idx];
     f70:	e59ca000 	ldr	sl, [ip]
     f74:	e1cc40d4 	ldrd	r4, [ip, #4]
     f78:	e59cc00c 	ldr	ip, [ip, #12]
	hash = ((u32)dev_addr) ^ hash ^ protocol ^ ntohs(src_port ^ dest_port);
     f7c:	e023000e 	eor	r0, r3, lr
     f80:	e6bf0fb0 	rev16	r0, r0
     f84:	e024200a 	eor	r2, r4, sl
     f88:	e6ff0070 	uxth	r0, r0
		hash ^= src_ip->addr[idx] ^ dest_ip->addr[idx];
     f8c:	e50b503c 	str	r5, [fp, #-60]	@ 0xffffffc4
	hash = ((u32)dev_addr) ^ hash ^ protocol ^ ntohs(src_port ^ dest_port);
     f90:	e0222001 	eor	r2, r2, r1
		hash ^= src_ip->addr[idx] ^ dest_ip->addr[idx];
     f94:	e50b4038 	str	r4, [fp, #-56]	@ 0xffffffc8
	hash = ((u32)dev_addr) ^ hash ^ protocol ^ ntohs(src_port ^ dest_port);
     f98:	e0222005 	eor	r2, r2, r5
		hash ^= src_ip->addr[idx] ^ dest_ip->addr[idx];
     f9c:	e50bc034 	str	ip, [fp, #-52]	@ 0xffffffcc
	cm = si->conn_match_hash[conn_match_idx];
     fa0:	e3005000 	movw	r5, #0
	hash = ((u32)dev_addr) ^ hash ^ protocol ^ ntohs(src_port ^ dest_port);
     fa4:	e022200c 	eor	r2, r2, ip
     fa8:	e51bc030 	ldr	ip, [fp, #-48]	@ 0xffffffd0
	cm = si->conn_match_hash[conn_match_idx];
     fac:	e3405000 	movt	r5, #0
	hash = ((u32)dev_addr) ^ hash ^ protocol ^ ntohs(src_port ^ dest_port);
     fb0:	e0222006 	eor	r2, r2, r6
     fb4:	e0222007 	eor	r2, r2, r7
     fb8:	e0222008 	eor	r2, r2, r8
     fbc:	e0222009 	eor	r2, r2, r9
     fc0:	e022200c 	eor	r2, r2, ip
     fc4:	e0222000 	eor	r2, r2, r0
	return ((hash >> SFE_IPV6_CONNECTION_HASH_SHIFT) ^ hash) & SFE_IPV6_CONNECTION_HASH_MASK;
     fc8:	e0222622 	eor	r2, r2, r2, lsr #12
     fcc:	e7ebc052 	ubfx	ip, r2, #0, #12
	cm = si->conn_match_hash[conn_match_idx];
     fd0:	e28cca01 	add	ip, ip, #4096	@ 0x1000
     fd4:	e28cc00c 	add	ip, ip, #12
     fd8:	e795410c 	ldr	r4, [r5, ip, lsl #2]
	if (unlikely(!cm)) {
     fdc:	e3540000 	cmp	r4, #0
     fe0:	0a000071 	beq	11ac <sfe_ipv6_find_connection_match.constprop.0+0x260>
	if ((cm->match_src_port == src_port)
     fe4:	e1d424b4 	ldrh	r2, [r4, #68]	@ 0x44
     fe8:	e1520003 	cmp	r2, r3
     fec:	0a000043 	beq	1100 <sfe_ipv6_find_connection_match.constprop.0+0x1b4>
		cm = cm->next;
     ff0:	e5940000 	ldr	r0, [r4]
	} while (cm && (cm->match_src_port != src_port
     ff4:	e3500000 	cmp	r0, #0
     ff8:	150b1040 	strne	r1, [fp, #-64]	@ 0xffffffc0
     ffc:	1a000003 	bne	1010 <sfe_ipv6_find_connection_match.constprop.0+0xc4>
    1000:	ea00003c 	b	10f8 <sfe_ipv6_find_connection_match.constprop.0+0x1ac>
		cm = cm->next;
    1004:	e5900000 	ldr	r0, [r0]
	} while (cm && (cm->match_src_port != src_port
    1008:	e3500000 	cmp	r0, #0
    100c:	0a000039 	beq	10f8 <sfe_ipv6_find_connection_match.constprop.0+0x1ac>
    1010:	e1d024b4 	ldrh	r2, [r0, #68]	@ 0x44
    1014:	e1520003 	cmp	r2, r3
    1018:	1afffff9 	bne	1004 <sfe_ipv6_find_connection_match.constprop.0+0xb8>
		 || cm->match_dest_port != dest_port
    101c:	e1d024b6 	ldrh	r2, [r0, #70]	@ 0x46
    1020:	e152000e 	cmp	r2, lr
    1024:	1afffff6 	bne	1004 <sfe_ipv6_find_connection_match.constprop.0+0xb8>
    1028:	e5902024 	ldr	r2, [r0, #36]	@ 0x24
    102c:	e1520006 	cmp	r2, r6
    1030:	1afffff3 	bne	1004 <sfe_ipv6_find_connection_match.constprop.0+0xb8>
	return a->addr[0] == b->addr[0] &&
    1034:	e5902028 	ldr	r2, [r0, #40]	@ 0x28
    1038:	e1520007 	cmp	r2, r7
    103c:	1afffff0 	bne	1004 <sfe_ipv6_find_connection_match.constprop.0+0xb8>
	       a->addr[1] == b->addr[1] &&
    1040:	e590202c 	ldr	r2, [r0, #44]	@ 0x2c
    1044:	e1520008 	cmp	r2, r8
    1048:	1affffed 	bne	1004 <sfe_ipv6_find_connection_match.constprop.0+0xb8>
	       a->addr[2] == b->addr[2] &&
    104c:	e5902030 	ldr	r2, [r0, #48]	@ 0x30
    1050:	e1590002 	cmp	r9, r2
    1054:	1affffea 	bne	1004 <sfe_ipv6_find_connection_match.constprop.0+0xb8>
    1058:	e5902034 	ldr	r2, [r0, #52]	@ 0x34
    105c:	e152000a 	cmp	r2, sl
    1060:	1affffe7 	bne	1004 <sfe_ipv6_find_connection_match.constprop.0+0xb8>
	return a->addr[0] == b->addr[0] &&
    1064:	e51b1038 	ldr	r1, [fp, #-56]	@ 0xffffffc8
    1068:	e5902038 	ldr	r2, [r0, #56]	@ 0x38
    106c:	e1520001 	cmp	r2, r1
    1070:	1affffe3 	bne	1004 <sfe_ipv6_find_connection_match.constprop.0+0xb8>
	       a->addr[1] == b->addr[1] &&
    1074:	e51b103c 	ldr	r1, [fp, #-60]	@ 0xffffffc4
    1078:	e590203c 	ldr	r2, [r0, #60]	@ 0x3c
    107c:	e1520001 	cmp	r2, r1
    1080:	1affffdf 	bne	1004 <sfe_ipv6_find_connection_match.constprop.0+0xb8>
	       a->addr[2] == b->addr[2] &&
    1084:	e51b1034 	ldr	r1, [fp, #-52]	@ 0xffffffcc
    1088:	e5902040 	ldr	r2, [r0, #64]	@ 0x40
    108c:	e1510002 	cmp	r1, r2
    1090:	1affffdb 	bne	1004 <sfe_ipv6_find_connection_match.constprop.0+0xb8>
		 || cm->match_protocol != protocol
    1094:	e51b1040 	ldr	r1, [fp, #-64]	@ 0xffffffc0
    1098:	e5d02020 	ldrb	r2, [r0, #32]
    109c:	e1520001 	cmp	r2, r1
    10a0:	1affffd7 	bne	1004 <sfe_ipv6_find_connection_match.constprop.0+0xb8>
		 || cm->match_dev != dev));
    10a4:	e51b1030 	ldr	r1, [fp, #-48]	@ 0xffffffd0
    10a8:	e590201c 	ldr	r2, [r0, #28]
    10ac:	e1510002 	cmp	r1, r2
    10b0:	1affffd3 	bne	1004 <sfe_ipv6_find_connection_match.constprop.0+0xb8>
	if (cm->next) {
    10b4:	e5903000 	ldr	r3, [r0]
    10b8:	e3530000 	cmp	r3, #0
    10bc:	0a000002 	beq	10cc <sfe_ipv6_find_connection_match.constprop.0+0x180>
		cm->next->prev = cm->prev;
    10c0:	e5902004 	ldr	r2, [r0, #4]
    10c4:	e5832004 	str	r2, [r3, #4]
	cm->prev->next = cm->next;
    10c8:	e5903000 	ldr	r3, [r0]
    10cc:	e5902004 	ldr	r2, [r0, #4]
    10d0:	e5823000 	str	r3, [r2]
	si->connection_match_hash_reorders++;
    10d4:	e59f20dc 	ldr	r2, [pc, #220]	@ 11b8 <sfe_ipv6_find_connection_match.constprop.0+0x26c>
	cm->prev = NULL;
    10d8:	e3a03000 	mov	r3, #0
	cm->next = head;
    10dc:	e5804000 	str	r4, [r0]
	cm->prev = NULL;
    10e0:	e5803004 	str	r3, [r0, #4]
	head->prev = cm;
    10e4:	e5840004 	str	r0, [r4, #4]
	si->connection_match_hash_reorders++;
    10e8:	e5923044 	ldr	r3, [r2, #68]	@ 0x44
	si->conn_match_hash[conn_match_idx] = cm;
    10ec:	e785010c 	str	r0, [r5, ip, lsl #2]
	si->connection_match_hash_reorders++;
    10f0:	e2833001 	add	r3, r3, #1
    10f4:	e5823044 	str	r3, [r2, #68]	@ 0x44
}
    10f8:	e24bd028 	sub	sp, fp, #40	@ 0x28
    10fc:	e89daff0 	ldm	sp, {r4, r5, r6, r7, r8, r9, sl, fp, sp, pc}
	    && (cm->match_dest_port == dest_port)
    1100:	e1d424b6 	ldrh	r2, [r4, #70]	@ 0x46
    1104:	e152000e 	cmp	r2, lr
    1108:	1affffb8 	bne	ff0 <sfe_ipv6_find_connection_match.constprop.0+0xa4>
    110c:	e5942024 	ldr	r2, [r4, #36]	@ 0x24
    1110:	e1520006 	cmp	r2, r6
    1114:	1affffb5 	bne	ff0 <sfe_ipv6_find_connection_match.constprop.0+0xa4>
	return a->addr[0] == b->addr[0] &&
    1118:	e5942028 	ldr	r2, [r4, #40]	@ 0x28
    111c:	e1520007 	cmp	r2, r7
    1120:	1affffb2 	bne	ff0 <sfe_ipv6_find_connection_match.constprop.0+0xa4>
	       a->addr[1] == b->addr[1] &&
    1124:	e594202c 	ldr	r2, [r4, #44]	@ 0x2c
    1128:	e1520008 	cmp	r2, r8
    112c:	1affffaf 	bne	ff0 <sfe_ipv6_find_connection_match.constprop.0+0xa4>
	       a->addr[2] == b->addr[2] &&
    1130:	e5942030 	ldr	r2, [r4, #48]	@ 0x30
    1134:	e1590002 	cmp	r9, r2
    1138:	1affffac 	bne	ff0 <sfe_ipv6_find_connection_match.constprop.0+0xa4>
    113c:	e5942034 	ldr	r2, [r4, #52]	@ 0x34
    1140:	e152000a 	cmp	r2, sl
    1144:	1affffa9 	bne	ff0 <sfe_ipv6_find_connection_match.constprop.0+0xa4>
	return a->addr[0] == b->addr[0] &&
    1148:	e51b0038 	ldr	r0, [fp, #-56]	@ 0xffffffc8
    114c:	e5942038 	ldr	r2, [r4, #56]	@ 0x38
    1150:	e1520000 	cmp	r2, r0
    1154:	1affffa5 	bne	ff0 <sfe_ipv6_find_connection_match.constprop.0+0xa4>
	       a->addr[1] == b->addr[1] &&
    1158:	e51b003c 	ldr	r0, [fp, #-60]	@ 0xffffffc4
    115c:	e594203c 	ldr	r2, [r4, #60]	@ 0x3c
    1160:	e1520000 	cmp	r2, r0
    1164:	1affffa1 	bne	ff0 <sfe_ipv6_find_connection_match.constprop.0+0xa4>
	       a->addr[2] == b->addr[2] &&
    1168:	e51b0034 	ldr	r0, [fp, #-52]	@ 0xffffffcc
    116c:	e5942040 	ldr	r2, [r4, #64]	@ 0x40
    1170:	e1500002 	cmp	r0, r2
    1174:	1affff9d 	bne	ff0 <sfe_ipv6_find_connection_match.constprop.0+0xa4>
	    && (cm->match_protocol == protocol)
    1178:	e5d42020 	ldrb	r2, [r4, #32]
    117c:	e1520001 	cmp	r2, r1
    1180:	1affff9a 	bne	ff0 <sfe_ipv6_find_connection_match.constprop.0+0xa4>
	    && (cm->match_dev == dev)) {
    1184:	e51b0030 	ldr	r0, [fp, #-48]	@ 0xffffffd0
    1188:	e594201c 	ldr	r2, [r4, #28]
    118c:	e1500002 	cmp	r0, r2
    1190:	1affff96 	bne	ff0 <sfe_ipv6_find_connection_match.constprop.0+0xa4>
		si->connection_match_hash_hits++;
    1194:	e59f201c 	ldr	r2, [pc, #28]	@ 11b8 <sfe_ipv6_find_connection_match.constprop.0+0x26c>
		return cm;
    1198:	e1a00004 	mov	r0, r4
		si->connection_match_hash_hits++;
    119c:	e5923040 	ldr	r3, [r2, #64]	@ 0x40
    11a0:	e2833001 	add	r3, r3, #1
    11a4:	e5823040 	str	r3, [r2, #64]	@ 0x40
		return cm;
    11a8:	eaffffd2 	b	10f8 <sfe_ipv6_find_connection_match.constprop.0+0x1ac>
		return NULL;
    11ac:	e1a00004 	mov	r0, r4
}
    11b0:	e24bd028 	sub	sp, fp, #40	@ 0x28
    11b4:	e89daff0 	ldm	sp, {r4, r5, r6, r7, r8, r9, sl, fp, sp, pc}
    11b8:	00010050 	.word	0x00010050

000011bc <sfe_ipv4_find_sfe_ipv4_connection_match.constprop.0>:
sfe_ipv4_find_sfe_ipv4_connection_match(struct sfe_ipv4 *si, struct net_device *dev, u8 protocol,
    11bc:	e1a0c00d 	mov	ip, sp
    11c0:	e92dd9f0 	push	{r4, r5, r6, r7, r8, fp, ip, lr, pc}
    11c4:	e24cb004 	sub	fp, ip, #4
    11c8:	e1db40b8 	ldrh	r4, [fp, #8]
    11cc:	e1a07000 	mov	r7, r0
	cm = si->conn_match_hash[conn_match_idx];
    11d0:	e3006000 	movw	r6, #0
sfe_ipv4_find_sfe_ipv4_connection_match(struct sfe_ipv4 *si, struct net_device *dev, u8 protocol,
    11d4:	e59b5004 	ldr	r5, [fp, #4]
	u32 hash = ((u32)dev_addr) ^ ntohl(src_ip ^ dest_ip) ^ protocol ^ ntohs(src_port ^ dest_port);
    11d8:	e027e001 	eor	lr, r7, r1
	cm = si->conn_match_hash[conn_match_idx];
    11dc:	e3406000 	movt	r6, #0
	u32 hash = ((u32)dev_addr) ^ ntohl(src_ip ^ dest_ip) ^ protocol ^ ntohs(src_port ^ dest_port);
    11e0:	e0230004 	eor	r0, r3, r4
    11e4:	e6bf0fb0 	rev16	r0, r0
    11e8:	e022c005 	eor	ip, r2, r5
    11ec:	e6ff0070 	uxth	r0, r0
    11f0:	e6bfcf3c 	rev	ip, ip
    11f4:	e02ee00c 	eor	lr, lr, ip
    11f8:	e02ee000 	eor	lr, lr, r0
	return ((hash >> SFE_IPV4_CONNECTION_HASH_SHIFT) ^ hash) & SFE_IPV4_CONNECTION_HASH_MASK;
    11fc:	e02ee62e 	eor	lr, lr, lr, lsr #12
    1200:	e7ebe05e 	ubfx	lr, lr, #0, #12
	cm = si->conn_match_hash[conn_match_idx];
    1204:	e28eea01 	add	lr, lr, #4096	@ 0x1000
    1208:	e28ee00c 	add	lr, lr, #12
    120c:	e796810e 	ldr	r8, [r6, lr, lsl #2]
	if (unlikely(!cm)) {
    1210:	e3580000 	cmp	r8, #0
    1214:	0a000043 	beq	1328 <sfe_ipv4_find_sfe_ipv4_connection_match.constprop.0+0x16c>
	if ((cm->match_src_port == src_port)
    1218:	e1d802bc 	ldrh	r0, [r8, #44]	@ 0x2c
    121c:	e1500003 	cmp	r0, r3
    1220:	0a00002b 	beq	12d4 <sfe_ipv4_find_sfe_ipv4_connection_match.constprop.0+0x118>
		cm = cm->next;
    1224:	e5980000 	ldr	r0, [r8]
	} while (cm && (cm->match_src_port != src_port
    1228:	e3500000 	cmp	r0, #0
    122c:	1a000003 	bne	1240 <sfe_ipv4_find_sfe_ipv4_connection_match.constprop.0+0x84>
    1230:	ea000025 	b	12cc <sfe_ipv4_find_sfe_ipv4_connection_match.constprop.0+0x110>
		cm = cm->next;
    1234:	e5900000 	ldr	r0, [r0]
	} while (cm && (cm->match_src_port != src_port
    1238:	e3500000 	cmp	r0, #0
    123c:	0a000022 	beq	12cc <sfe_ipv4_find_sfe_ipv4_connection_match.constprop.0+0x110>
    1240:	e1d0c2bc 	ldrh	ip, [r0, #44]	@ 0x2c
    1244:	e15c0003 	cmp	ip, r3
    1248:	1afffff9 	bne	1234 <sfe_ipv4_find_sfe_ipv4_connection_match.constprop.0+0x78>
		 || cm->match_dest_port != dest_port
    124c:	e1d0c2be 	ldrh	ip, [r0, #46]	@ 0x2e
    1250:	e15c0004 	cmp	ip, r4
    1254:	1afffff6 	bne	1234 <sfe_ipv4_find_sfe_ipv4_connection_match.constprop.0+0x78>
		 || cm->match_src_ip != src_ip
    1258:	e590c024 	ldr	ip, [r0, #36]	@ 0x24
    125c:	e152000c 	cmp	r2, ip
    1260:	1afffff3 	bne	1234 <sfe_ipv4_find_sfe_ipv4_connection_match.constprop.0+0x78>
		 || cm->match_dest_ip != dest_ip
    1264:	e590c028 	ldr	ip, [r0, #40]	@ 0x28
    1268:	e155000c 	cmp	r5, ip
    126c:	1afffff0 	bne	1234 <sfe_ipv4_find_sfe_ipv4_connection_match.constprop.0+0x78>
		 || cm->match_protocol != protocol
    1270:	e5d0c020 	ldrb	ip, [r0, #32]
    1274:	e15c0001 	cmp	ip, r1
    1278:	1affffed 	bne	1234 <sfe_ipv4_find_sfe_ipv4_connection_match.constprop.0+0x78>
		 || cm->match_dev != dev));
    127c:	e590c01c 	ldr	ip, [r0, #28]
    1280:	e157000c 	cmp	r7, ip
    1284:	1affffea 	bne	1234 <sfe_ipv4_find_sfe_ipv4_connection_match.constprop.0+0x78>
	if (cm->next) {
    1288:	e5903000 	ldr	r3, [r0]
    128c:	e3530000 	cmp	r3, #0
    1290:	0a000002 	beq	12a0 <sfe_ipv4_find_sfe_ipv4_connection_match.constprop.0+0xe4>
		cm->next->prev = cm->prev;
    1294:	e5902004 	ldr	r2, [r0, #4]
    1298:	e5832004 	str	r2, [r3, #4]
	cm->prev->next = cm->next;
    129c:	e5903000 	ldr	r3, [r0]
    12a0:	e5902004 	ldr	r2, [r0, #4]
    12a4:	e5823000 	str	r3, [r2]
	si->connection_match_hash_reorders++;
    12a8:	e59f2084 	ldr	r2, [pc, #132]	@ 1334 <sfe_ipv4_find_sfe_ipv4_connection_match.constprop.0+0x178>
	cm->prev = NULL;
    12ac:	e3a03000 	mov	r3, #0
	cm->next = head;
    12b0:	e5808000 	str	r8, [r0]
	cm->prev = NULL;
    12b4:	e5803004 	str	r3, [r0, #4]
	head->prev = cm;
    12b8:	e5880004 	str	r0, [r8, #4]
	si->connection_match_hash_reorders++;
    12bc:	e5923044 	ldr	r3, [r2, #68]	@ 0x44
	si->conn_match_hash[conn_match_idx] = cm;
    12c0:	e786010e 	str	r0, [r6, lr, lsl #2]
	si->connection_match_hash_reorders++;
    12c4:	e2833001 	add	r3, r3, #1
    12c8:	e5823044 	str	r3, [r2, #68]	@ 0x44
}
    12cc:	e24bd020 	sub	sp, fp, #32
    12d0:	e89da9f0 	ldm	sp, {r4, r5, r6, r7, r8, fp, sp, pc}
	    && (cm->match_dest_port == dest_port)
    12d4:	e1d802be 	ldrh	r0, [r8, #46]	@ 0x2e
    12d8:	e1500004 	cmp	r0, r4
    12dc:	1affffd0 	bne	1224 <sfe_ipv4_find_sfe_ipv4_connection_match.constprop.0+0x68>
	    && (cm->match_src_ip == src_ip)
    12e0:	e5980024 	ldr	r0, [r8, #36]	@ 0x24
    12e4:	e1520000 	cmp	r2, r0
    12e8:	1affffcd 	bne	1224 <sfe_ipv4_find_sfe_ipv4_connection_match.constprop.0+0x68>
	    && (cm->match_dest_ip == dest_ip)
    12ec:	e5980028 	ldr	r0, [r8, #40]	@ 0x28
    12f0:	e1550000 	cmp	r5, r0
    12f4:	1affffca 	bne	1224 <sfe_ipv4_find_sfe_ipv4_connection_match.constprop.0+0x68>
	    && (cm->match_protocol == protocol)
    12f8:	e5d80020 	ldrb	r0, [r8, #32]
    12fc:	e1500001 	cmp	r0, r1
    1300:	1affffc7 	bne	1224 <sfe_ipv4_find_sfe_ipv4_connection_match.constprop.0+0x68>
	    && (cm->match_dev == dev)) {
    1304:	e598001c 	ldr	r0, [r8, #28]
    1308:	e1570000 	cmp	r7, r0
    130c:	1affffc4 	bne	1224 <sfe_ipv4_find_sfe_ipv4_connection_match.constprop.0+0x68>
		si->connection_match_hash_hits++;
    1310:	e2866902 	add	r6, r6, #32768	@ 0x8000
		return cm;
    1314:	e1a00008 	mov	r0, r8
		si->connection_match_hash_hits++;
    1318:	e5963040 	ldr	r3, [r6, #64]	@ 0x40
    131c:	e2833001 	add	r3, r3, #1
    1320:	e5863040 	str	r3, [r6, #64]	@ 0x40
		return cm;
    1324:	eaffffe8 	b	12cc <sfe_ipv4_find_sfe_ipv4_connection_match.constprop.0+0x110>
		return NULL;
    1328:	e1a00008 	mov	r0, r8
}
    132c:	e24bd020 	sub	sp, fp, #32
    1330:	e89da9f0 	ldm	sp, {r4, r5, r6, r7, r8, fp, sp, pc}
    1334:	000182c8 	.word	0x000182c8

00001338 <sfe_ipv6_debug_dev_read_connections_connection>:
{
    1338:	e1a0c00d 	mov	ip, sp
    133c:	e92ddff0 	push	{r4, r5, r6, r7, r8, r9, sl, fp, ip, lr, pc}
    1340:	e24cb004 	sub	fp, ip, #4
    1344:	e24dd0fc 	sub	sp, sp, #252	@ 0xfc
    1348:	e1a05000 	mov	r5, r0
    134c:	e59b6008 	ldr	r6, [fp, #8]
    1350:	e1a08003 	mov	r8, r3
    1354:	e50b1074 	str	r1, [fp, #-116]	@ 0xffffff8c
    1358:	e50b2070 	str	r2, [fp, #-112]	@ 0xffffff90
	raw_spin_lock_bh(&lock->rlock);
    135c:	ebfffffe 	bl	0 <_raw_spin_lock_bh>
	for (c = si->all_connections_head; c; c = c->all_connections_next) {
    1360:	e595400c 	ldr	r4, [r5, #12]
    1364:	e3540000 	cmp	r4, #0
    1368:	0a0000b5 	beq	1644 <sfe_ipv6_debug_dev_read_connections_connection+0x30c>
		if (c->debug_read_seq < si->debug_read_seq) {
    136c:	e2853902 	add	r3, r5, #32768	@ 0x8000
    1370:	e5932270 	ldr	r2, [r3, #624]	@ 0x270
    1374:	ea000002 	b	1384 <sfe_ipv6_debug_dev_read_connections_connection+0x4c>
	for (c = si->all_connections_head; c; c = c->all_connections_next) {
    1378:	e5944070 	ldr	r4, [r4, #112]	@ 0x70
    137c:	e3540000 	cmp	r4, #0
    1380:	0a0000af 	beq	1644 <sfe_ipv6_debug_dev_read_connections_connection+0x30c>
		if (c->debug_read_seq < si->debug_read_seq) {
    1384:	e594307c 	ldr	r3, [r4, #124]	@ 0x7c
    1388:	e1530002 	cmp	r3, r2
    138c:	2afffff9 	bcs	1378 <sfe_ipv6_debug_dev_read_connections_connection+0x40>
			c->debug_read_seq = si->debug_read_seq;
    1390:	e584207c 	str	r2, [r4, #124]	@ 0x7c
	protocol = c->protocol;
    1394:	e5941008 	ldr	r1, [r4, #8]
	original_cm = c->original_match;
    1398:	e5943054 	ldr	r3, [r4, #84]	@ 0x54
	src_dev = c->original_dev;
    139c:	e5940058 	ldr	r0, [r4, #88]	@ 0x58
	src_port_xlate = c->src_port_xlate;
    13a0:	e1d4e4be 	ldrh	lr, [r4, #78]	@ 0x4e
	src_port = c->src_port;
    13a4:	e1d4c4bc 	ldrh	ip, [r4, #76]	@ 0x4c
	src_priority = original_cm->priority;
    13a8:	e5936090 	ldr	r6, [r3, #144]	@ 0x90
	reply_cm = c->reply_match;
    13ac:	e594205c 	ldr	r2, [r4, #92]	@ 0x5c
	protocol = c->protocol;
    13b0:	e14b07fc 	strd	r0, [fp, #-124]	@ 0xffffff84
	cm->rx_packet_count64 += cm->rx_packet_count;
    13b4:	e5930060 	ldr	r0, [r3, #96]	@ 0x60
    13b8:	e59310b0 	ldr	r1, [r3, #176]	@ 0xb0
	src_priority = original_cm->priority;
    13bc:	e50b6088 	str	r6, [fp, #-136]	@ 0xffffff78
	src_dscp = original_cm->dscp >> SFE_IPV6_DSCP_SHIFT;
    13c0:	e5936094 	ldr	r6, [r3, #148]	@ 0x94
	src_port_xlate = c->src_port_xlate;
    13c4:	e50be084 	str	lr, [fp, #-132]	@ 0xffffff7c
	src_port = c->src_port;
    13c8:	e50bc080 	str	ip, [fp, #-128]	@ 0xffffff80
	cm->rx_packet_count64 += cm->rx_packet_count;
    13cc:	e091e000 	adds	lr, r1, r0
	cm->rx_byte_count64 += cm->rx_byte_count;
    13d0:	e5930064 	ldr	r0, [r3, #100]	@ 0x64
	src_dscp = original_cm->dscp >> SFE_IPV6_DSCP_SHIFT;
    13d4:	e1a07126 	lsr	r7, r6, #2
	cm->rx_packet_count64 += cm->rx_packet_count;
    13d8:	e59310b4 	ldr	r1, [r3, #180]	@ 0xb4
	src_dscp = original_cm->dscp >> SFE_IPV6_DSCP_SHIFT;
    13dc:	e50b708c 	str	r7, [fp, #-140]	@ 0xffffff74
	src_ip = c->src_ip[0];
    13e0:	e1c460dc 	ldrd	r6, [r4, #12]
	cm->rx_packet_count64 += cm->rx_packet_count;
    13e4:	e2a1c000 	adc	ip, r1, #0
	cm->rx_byte_count64 += cm->rx_byte_count;
    13e8:	e59310b8 	ldr	r1, [r3, #184]	@ 0xb8
	src_ip = c->src_ip[0];
    13ec:	e14b66fc 	strd	r6, [fp, #-108]	@ 0xffffff94
    13f0:	e1c461d4 	ldrd	r6, [r4, #20]
	cm->rx_byte_count64 += cm->rx_byte_count;
    13f4:	e0911000 	adds	r1, r1, r0
    13f8:	e59300bc 	ldr	r0, [r3, #188]	@ 0xbc
	src_ip = c->src_ip[0];
    13fc:	e14b66f4 	strd	r6, [fp, #-100]	@ 0xffffff9c
	src_ip_xlate = c->src_ip_xlate[0];
    1400:	e1c461dc 	ldrd	r6, [r4, #28]
	cm->rx_byte_count64 += cm->rx_byte_count;
    1404:	e2a00000 	adc	r0, r0, #0
	src_ip_xlate = c->src_ip_xlate[0];
    1408:	e14b65fc 	strd	r6, [fp, #-92]	@ 0xffffffa4
    140c:	e1c462d4 	ldrd	r6, [r4, #36]	@ 0x24
	cm->rx_packet_count64 += cm->rx_packet_count;
    1410:	e583e0b0 	str	lr, [r3, #176]	@ 0xb0
    1414:	e583c0b4 	str	ip, [r3, #180]	@ 0xb4
	cm->rx_byte_count64 += cm->rx_byte_count;
    1418:	e58310b8 	str	r1, [r3, #184]	@ 0xb8
	cm->rx_packet_count = 0;
    141c:	e3a01000 	mov	r1, #0
	src_ip_xlate = c->src_ip_xlate[0];
    1420:	e14b65f4 	strd	r6, [fp, #-84]	@ 0xffffffac
	cm->rx_byte_count64 += cm->rx_byte_count;
    1424:	e58300bc 	str	r0, [r3, #188]	@ 0xbc
	cm->rx_packet_count = 0;
    1428:	e3a00000 	mov	r0, #0
    142c:	e1c306f0 	strd	r0, [r3, #96]	@ 0x60
	cm->rx_packet_count64 += cm->rx_packet_count;
    1430:	e5921060 	ldr	r1, [r2, #96]	@ 0x60
	cm->rx_byte_count64 += cm->rx_byte_count;
    1434:	e5926064 	ldr	r6, [r2, #100]	@ 0x64
	cm->rx_packet_count64 += cm->rx_packet_count;
    1438:	e59200b0 	ldr	r0, [r2, #176]	@ 0xb0
	cm->rx_byte_count64 += cm->rx_byte_count;
    143c:	e59270bc 	ldr	r7, [r2, #188]	@ 0xbc
	cm->rx_packet_count64 += cm->rx_packet_count;
    1440:	e091a000 	adds	sl, r1, r0
    1444:	e59210b4 	ldr	r1, [r2, #180]	@ 0xb4
	cm->rx_packet_count = 0;
    1448:	e3a00000 	mov	r0, #0
	cm->rx_packet_count64 += cm->rx_packet_count;
    144c:	e582a0b0 	str	sl, [r2, #176]	@ 0xb0
    1450:	e2a19000 	adc	r9, r1, #0
	cm->rx_packet_count = 0;
    1454:	e3a01000 	mov	r1, #0
    1458:	e1c206f0 	strd	r0, [r2, #96]	@ 0x60
	cm->rx_byte_count64 += cm->rx_byte_count;
    145c:	e59210b8 	ldr	r1, [r2, #184]	@ 0xb8
	cm->rx_packet_count64 += cm->rx_packet_count;
    1460:	e58290b4 	str	r9, [r2, #180]	@ 0xb4
	cm->rx_byte_count64 += cm->rx_byte_count;
    1464:	e0966001 	adds	r6, r6, r1
	dest_dscp = reply_cm->dscp >> SFE_IPV6_DSCP_SHIFT;
    1468:	e5921094 	ldr	r1, [r2, #148]	@ 0x94
	cm->rx_byte_count64 += cm->rx_byte_count;
    146c:	e2a77000 	adc	r7, r7, #0
    1470:	e1c26bf8 	strd	r6, [r2, #184]	@ 0xb8
	dest_priority = reply_cm->priority;
    1474:	e5922090 	ldr	r2, [r2, #144]	@ 0x90
	dest_dscp = reply_cm->dscp >> SFE_IPV6_DSCP_SHIFT;
    1478:	e1a01121 	lsr	r1, r1, #2
	dest_port_xlate = c->dest_port_xlate;
    147c:	e1d4e5b2 	ldrh	lr, [r4, #82]	@ 0x52
	dest_port = c->dest_port;
    1480:	e1d4c5b0 	ldrh	ip, [r4, #80]	@ 0x50
	dest_priority = reply_cm->priority;
    1484:	e50b20b4 	str	r2, [fp, #-180]	@ 0xffffff4c
	dest_dscp = reply_cm->dscp >> SFE_IPV6_DSCP_SHIFT;
    1488:	e50b10ac 	str	r1, [fp, #-172]	@ 0xffffff54
	dest_dev = c->reply_dev;
    148c:	e5941060 	ldr	r1, [r4, #96]	@ 0x60
	dest_port_xlate = c->dest_port_xlate;
    1490:	e50be0a8 	str	lr, [fp, #-168]	@ 0xffffff58
	dest_port = c->dest_port;
    1494:	e50bc0a4 	str	ip, [fp, #-164]	@ 0xffffff5c
	dest_dev = c->reply_dev;
    1498:	e50b10a0 	str	r1, [fp, #-160]	@ 0xffffff60
	dest_ip = c->dest_ip[0];
    149c:	e1c402dc 	ldrd	r0, [r4, #44]	@ 0x2c
    14a0:	e14b04fc 	strd	r0, [fp, #-76]	@ 0xffffffb4
    14a4:	e1c403d4 	ldrd	r0, [r4, #52]	@ 0x34
    14a8:	e14b04f4 	strd	r0, [fp, #-68]	@ 0xffffffbc
	dest_ip_xlate = c->dest_ip_xlate[0];
    14ac:	e1c403dc 	ldrd	r0, [r4, #60]	@ 0x3c
    14b0:	e14b03fc 	strd	r0, [fp, #-60]	@ 0xffffffc4
    14b4:	e1c404d4 	ldrd	r0, [r4, #68]	@ 0x44
    14b8:	e14b03f4 	strd	r0, [fp, #-52]	@ 0xffffffcc
	src_rx_packets = original_cm->rx_packet_count64;
    14bc:	e1c30bd0 	ldrd	r0, [r3, #176]	@ 0xb0
    14c0:	e14b09f4 	strd	r0, [fp, #-148]	@ 0xffffff6c
	src_rx_bytes = original_cm->rx_byte_count64;
    14c4:	e1c32bd8 	ldrd	r2, [r3, #184]	@ 0xb8
    14c8:	e14b29fc 	strd	r2, [fp, #-156]	@ 0xffffff64
	last_sync_jiffies = get_jiffies_64() - c->last_sync_jiffies;
    14cc:	ebfffffe 	bl	0 <get_jiffies_64>
    14d0:	e594c068 	ldr	ip, [r4, #104]	@ 0x68
    14d4:	e1a03000 	mov	r3, r0
	raw_spin_unlock_bh(&lock->rlock);
    14d8:	e1a00005 	mov	r0, r5
    14dc:	e053500c 	subs	r5, r3, ip
    14e0:	e594306c 	ldr	r3, [r4, #108]	@ 0x6c
	mark = c->mark;
    14e4:	e5944078 	ldr	r4, [r4, #120]	@ 0x78
	last_sync_jiffies = get_jiffies_64() - c->last_sync_jiffies;
    14e8:	e0c11003 	sbc	r1, r1, r3
    14ec:	e50b10b0 	str	r1, [fp, #-176]	@ 0xffffff50
    14f0:	ebfffffe 	bl	0 <_raw_spin_unlock_bh>
	bytes_read = snprintf(msg, CHAR_DEV_MSG_SIZE, "\t\t<connection "
    14f4:	e14b09d4 	ldrd	r0, [fp, #-148]	@ 0xffffff6c
    14f8:	e1cd02f0 	strd	r0, [sp, #32]
    14fc:	e14b29dc 	ldrd	r2, [fp, #-156]	@ 0xffffff64
    1500:	e1cd22f8 	strd	r2, [sp, #40]	@ 0x28
    1504:	e24b306c 	sub	r3, fp, #108	@ 0x6c
    1508:	e51b007c 	ldr	r0, [fp, #-124]	@ 0xffffff84
    150c:	e88d0009 	stm	sp, {r0, r3}
    1510:	e24b305c 	sub	r3, fp, #92	@ 0x5c
    1514:	e58d3008 	str	r3, [sp, #8]
    1518:	e51b2088 	ldr	r2, [fp, #-136]	@ 0xffffff78
    151c:	e58d2014 	str	r2, [sp, #20]
    1520:	e51b208c 	ldr	r2, [fp, #-140]	@ 0xffffff74
    1524:	e58d2018 	str	r2, [sp, #24]
    1528:	e51b00a0 	ldr	r0, [fp, #-160]	@ 0xffffff60
    152c:	e58d0030 	str	r0, [sp, #48]	@ 0x30
    1530:	e24b004c 	sub	r0, fp, #76	@ 0x4c
    1534:	e58d0034 	str	r0, [sp, #52]	@ 0x34
    1538:	e24b003c 	sub	r0, fp, #60	@ 0x3c
    153c:	e58d0038 	str	r0, [sp, #56]	@ 0x38
    1540:	e51b20b4 	ldr	r2, [fp, #-180]	@ 0xffffff4c
    1544:	e58d2044 	str	r2, [sp, #68]	@ 0x44
    1548:	e51b20ac 	ldr	r2, [fp, #-172]	@ 0xffffff54
    154c:	e58d5060 	str	r5, [sp, #96]	@ 0x60
    1550:	e58d2048 	str	r2, [sp, #72]	@ 0x48
    1554:	e58da050 	str	sl, [sp, #80]	@ 0x50
    1558:	e58d9054 	str	r9, [sp, #84]	@ 0x54
    155c:	e1cd65f8 	strd	r6, [sp, #88]	@ 0x58
    1560:	e51b10b0 	ldr	r1, [fp, #-176]	@ 0xffffff50
    1564:	e58d1064 	str	r1, [sp, #100]	@ 0x64
    1568:	e3a01c03 	mov	r1, #768	@ 0x300
    156c:	e58d4068 	str	r4, [sp, #104]	@ 0x68
				ntohs(src_port), ntohs(src_port_xlate),
    1570:	e51be084 	ldr	lr, [fp, #-132]	@ 0xffffff7c
    1574:	e51bc080 	ldr	ip, [fp, #-128]	@ 0xffffff80
    1578:	e6bf3fbe 	rev16	r3, lr
    157c:	e6bf2fbc 	rev16	r2, ip
    1580:	e6ff3073 	uxth	r3, r3
    1584:	e6ff2072 	uxth	r2, r2
	bytes_read = snprintf(msg, CHAR_DEV_MSG_SIZE, "\t\t<connection "
    1588:	e1cd20fc 	strd	r2, [sp, #12]
				ntohs(dest_port), ntohs(dest_port_xlate),
    158c:	e51bc0a4 	ldr	ip, [fp, #-164]	@ 0xffffff5c
    1590:	e51be0a8 	ldr	lr, [fp, #-168]	@ 0xffffff58
    1594:	e6bf2fbc 	rev16	r2, ip
    1598:	e6bf3fbe 	rev16	r3, lr
    159c:	e6ff2072 	uxth	r2, r2
    15a0:	e6ff3073 	uxth	r3, r3
	bytes_read = snprintf(msg, CHAR_DEV_MSG_SIZE, "\t\t<connection "
    15a4:	e1cd23fc 	strd	r2, [sp, #60]	@ 0x3c
    15a8:	e3002000 	movw	r2, #0
    15ac:	e51b3078 	ldr	r3, [fp, #-120]	@ 0xffffff88
    15b0:	e51b0070 	ldr	r0, [fp, #-112]	@ 0xffffff90
    15b4:	e3402000 	movt	r2, #0
    15b8:	ebfffffe 	bl	0 <snprintf>
	if (copy_to_user(buffer + *total_read, msg, CHAR_DEV_MSG_SIZE)) {
    15bc:	e51b2074 	ldr	r2, [fp, #-116]	@ 0xffffff8c
	bytes_read = snprintf(msg, CHAR_DEV_MSG_SIZE, "\t\t<connection "
    15c0:	e1a04000 	mov	r4, r0
	if (copy_to_user(buffer + *total_read, msg, CHAR_DEV_MSG_SIZE)) {
    15c4:	e59b3004 	ldr	r3, [fp, #4]
    15c8:	e5933000 	ldr	r3, [r3]
    15cc:	e0820003 	add	r0, r2, r3

	if (IS_ENABLED(CONFIG_ALTERNATE_USER_ADDRESS_SPACE) ||
	    !IS_ENABLED(CONFIG_MMU))
		return true;

	return (size <= limit) && (addr <= (limit - size));
    15d0:	e3a03cfd 	mov	r3, #64768	@ 0xfd00
    15d4:	e34b3eff 	movt	r3, #48895	@ 0xbeff
    15d8:	e1500003 	cmp	r0, r3
    15dc:	9a000002 	bls	15ec <sfe_ipv6_debug_dev_read_connections_connection+0x2b4>
		return false;
    15e0:	e3a00000 	mov	r0, #0
}
    15e4:	e24bd028 	sub	sp, fp, #40	@ 0x28
    15e8:	e89daff0 	ldm	sp, {r4, r5, r6, r7, r8, r9, sl, fp, sp, pc}
	 * load the TLS register only once in every function.
	 *
	 * Clang < 13.0.1 gets this wrong for Thumb2 builds:
	 * https://github.com/ClangBuiltLinux/linux/issues/1485
	 */
	cur = __builtin_thread_pointer();
    15ec:	ee1d3f70 	mrc	15, 0, r3, cr13, cr0, {3}
#ifdef CONFIG_CPU_CP15_MMU
static __always_inline unsigned int get_domain(void)
{
	unsigned int domain;

	asm(
    15f0:	ee135f10 	mrc	15, 0, r5, cr3, cr0, {0}
{
#ifdef CONFIG_CPU_SW_DOMAIN_PAN
	unsigned int old_domain = get_domain();

	/* Set the current domain access to permit user accesses */
	set_domain((old_domain & ~domain_mask(DOMAIN_USER)) |
    15f4:	e3c5300c 	bic	r3, r5, #12
    15f8:	e3833004 	orr	r3, r3, #4
	return domain;
}

static __always_inline void set_domain(unsigned int val)
{
	asm volatile(
    15fc:	ee033f10 	mcr	15, 0, r3, cr3, cr0, {0}
	"mcr	p15, 0, %0, c3, c0	@ set domain"
	  : : "r" (val) : "memory");
	isb();
    1600:	f57ff06f 	isb	sy
raw_copy_to_user(void __user *to, const void *from, unsigned long n)
{
#ifndef CONFIG_UACCESS_WITH_MEMCPY
	unsigned int __ua_flags;
	__ua_flags = uaccess_save_and_enable();
	n = arm_copy_to_user(to, from, n);
    1604:	e51b1070 	ldr	r1, [fp, #-112]	@ 0xffffff90
    1608:	e3a02c03 	mov	r2, #768	@ 0x300
    160c:	ebfffffe 	bl	0 <arm_copy_to_user>
	asm volatile(
    1610:	ee035f10 	mcr	15, 0, r5, cr3, cr0, {0}
	isb();
    1614:	f57ff06f 	isb	sy
	if (copy_to_user(buffer + *total_read, msg, CHAR_DEV_MSG_SIZE)) {
    1618:	e3500000 	cmp	r0, #0
    161c:	1affffef 	bne	15e0 <sfe_ipv6_debug_dev_read_connections_connection+0x2a8>
	*length -= bytes_read;
    1620:	e5983000 	ldr	r3, [r8]
	*total_read += bytes_read;
    1624:	e59b2004 	ldr	r2, [fp, #4]
	*length -= bytes_read;
    1628:	e0433004 	sub	r3, r3, r4
    162c:	e5883000 	str	r3, [r8]
	*total_read += bytes_read;
    1630:	e59b3004 	ldr	r3, [fp, #4]
    1634:	e5933000 	ldr	r3, [r3]
    1638:	e0833004 	add	r3, r3, r4
    163c:	e5823000 	str	r3, [r2]
	return true;
    1640:	ea000004 	b	1658 <sfe_ipv6_debug_dev_read_connections_connection+0x320>
    1644:	e1a00005 	mov	r0, r5
    1648:	ebfffffe 	bl	0 <_raw_spin_unlock_bh>
		ws->state++;
    164c:	e5963000 	ldr	r3, [r6]
    1650:	e2833001 	add	r3, r3, #1
    1654:	e5863000 	str	r3, [r6]
		return true;
    1658:	e3a00001 	mov	r0, #1
}
    165c:	e24bd028 	sub	sp, fp, #40	@ 0x28
    1660:	e89daff0 	ldm	sp, {r4, r5, r6, r7, r8, r9, sl, fp, sp, pc}

00001664 <sfe_ipv6_update_tcp_state.isra.0>:
sfe_ipv6_update_tcp_state(struct sfe_ipv6_connection *c,
    1664:	e1a0c00d 	mov	ip, sp
    1668:	e92dd800 	push	{fp, ip, lr, pc}
    166c:	e24cb004 	sub	fp, ip, #4
	if (orig_tcp->max_win < sic->src_td_max_window) {
    1670:	e590c054 	ldr	ip, [r0, #84]	@ 0x54
    1674:	e592307c 	ldr	r3, [r2, #124]	@ 0x7c
    1678:	e15c0003 	cmp	ip, r3
		orig_tcp->max_win = sic->src_td_max_window;
    167c:	35803054 	strcc	r3, [r0, #84]	@ 0x54
	if ((s32)(orig_tcp->end - sic->src_td_end) < 0) {
    1680:	e5903058 	ldr	r3, [r0, #88]	@ 0x58
    1684:	e592c080 	ldr	ip, [r2, #128]	@ 0x80
    1688:	e043300c 	sub	r3, r3, ip
    168c:	e3530000 	cmp	r3, #0
	if ((s32)(orig_tcp->max_end - sic->src_td_max_end) < 0) {
    1690:	e590305c 	ldr	r3, [r0, #92]	@ 0x5c
		orig_tcp->end = sic->src_td_end;
    1694:	b580c058 	strlt	ip, [r0, #88]	@ 0x58
	if ((s32)(orig_tcp->max_end - sic->src_td_max_end) < 0) {
    1698:	e592c084 	ldr	ip, [r2, #132]	@ 0x84
    169c:	e043300c 	sub	r3, r3, ip
    16a0:	e3530000 	cmp	r3, #0
		orig_tcp->max_end = sic->src_td_max_end;
    16a4:	b580c05c 	strlt	ip, [r0, #92]	@ 0x5c
	if (repl_tcp->max_win < sic->dest_td_max_window) {
    16a8:	e591c054 	ldr	ip, [r1, #84]	@ 0x54
    16ac:	e592308c 	ldr	r3, [r2, #140]	@ 0x8c
    16b0:	e15c0003 	cmp	ip, r3
		repl_tcp->max_win = sic->dest_td_max_window;
    16b4:	35813054 	strcc	r3, [r1, #84]	@ 0x54
	if ((s32)(repl_tcp->end - sic->dest_td_end) < 0) {
    16b8:	e5913058 	ldr	r3, [r1, #88]	@ 0x58
    16bc:	e592c090 	ldr	ip, [r2, #144]	@ 0x90
    16c0:	e043300c 	sub	r3, r3, ip
    16c4:	e3530000 	cmp	r3, #0
	if ((s32)(repl_tcp->max_end - sic->dest_td_max_end) < 0) {
    16c8:	e591305c 	ldr	r3, [r1, #92]	@ 0x5c
		repl_tcp->end = sic->dest_td_end;
    16cc:	b581c058 	strlt	ip, [r1, #88]	@ 0x58
	if ((s32)(repl_tcp->max_end - sic->dest_td_max_end) < 0) {
    16d0:	e592c094 	ldr	ip, [r2, #148]	@ 0x94
    16d4:	e043300c 	sub	r3, r3, ip
    16d8:	e3530000 	cmp	r3, #0
		repl_tcp->max_end = sic->dest_td_max_end;
    16dc:	b581c05c 	strlt	ip, [r1, #92]	@ 0x5c
	orig_cm->flags &= ~SFE_IPV6_CONNECTION_MATCH_FLAG_NO_SEQ_CHECK;
    16e0:	e5903048 	ldr	r3, [r0, #72]	@ 0x48
    16e4:	e3c33004 	bic	r3, r3, #4
    16e8:	e5803048 	str	r3, [r0, #72]	@ 0x48
	repl_cm->flags &= ~SFE_IPV6_CONNECTION_MATCH_FLAG_NO_SEQ_CHECK;
    16ec:	e5913048 	ldr	r3, [r1, #72]	@ 0x48
    16f0:	e3c33004 	bic	r3, r3, #4
    16f4:	e5813048 	str	r3, [r1, #72]	@ 0x48
	if (sic->flags & SFE_CREATE_FLAG_NO_SEQ_CHECK) {
    16f8:	e592300c 	ldr	r3, [r2, #12]
    16fc:	e3130001 	tst	r3, #1
    1700:	0a000005 	beq	171c <sfe_ipv6_update_tcp_state.isra.0+0xb8>
		orig_cm->flags |= SFE_IPV6_CONNECTION_MATCH_FLAG_NO_SEQ_CHECK;
    1704:	e5903048 	ldr	r3, [r0, #72]	@ 0x48
    1708:	e3833004 	orr	r3, r3, #4
    170c:	e5803048 	str	r3, [r0, #72]	@ 0x48
		repl_cm->flags |= SFE_IPV6_CONNECTION_MATCH_FLAG_NO_SEQ_CHECK;
    1710:	e5913048 	ldr	r3, [r1, #72]	@ 0x48
    1714:	e3833004 	orr	r3, r3, #4
    1718:	e5813048 	str	r3, [r1, #72]	@ 0x48
}
    171c:	e24bd00c 	sub	sp, fp, #12
    1720:	e89da800 	ldm	sp, {fp, sp, pc}

00001724 <sfe_ipv6_flush_connection.constprop.1>:
static void sfe_ipv6_flush_connection(struct sfe_ipv6 *si,
    1724:	e1a0c00d 	mov	ip, sp
    1728:	e92ddff0 	push	{r4, r5, r6, r7, r8, r9, sl, fp, ip, lr, pc}
    172c:	e24cb004 	sub	fp, ip, #4
    1730:	e24dd0cc 	sub	sp, sp, #204	@ 0xcc
    1734:	e1a04000 	mov	r4, r0
	raw_spin_lock_bh(&lock->rlock);
    1738:	e3005000 	movw	r5, #0
    173c:	e3405000 	movt	r5, #0
    1740:	e1a00005 	mov	r0, r5
    1744:	ebfffffe 	bl	0 <_raw_spin_lock_bh>
	si->connection_flushes++;
    1748:	e2852902 	add	r2, r5, #32768	@ 0x8000
	raw_spin_unlock_bh(&lock->rlock);
    174c:	e1a00005 	mov	r0, r5
	sync_rule_callback = rcu_dereference(si->sync_rule_callback);
    1750:	e595502c 	ldr	r5, [r5, #44]	@ 0x2c
	si->connection_flushes++;
    1754:	e5923048 	ldr	r3, [r2, #72]	@ 0x48
    1758:	e2833001 	add	r3, r3, #1
    175c:	e5823048 	str	r3, [r2, #72]	@ 0x48
    1760:	ebfffffe 	bl	0 <_raw_spin_unlock_bh>
	if (sync_rule_callback) {
    1764:	e3550000 	cmp	r5, #0
    1768:	0a00006e 	beq	1928 <sfe_ipv6_flush_connection.constprop.1+0x204>
		now_jiffies = get_jiffies_64();
    176c:	ebfffffe 	bl	0 <get_jiffies_64>
	sis->protocol = c->protocol;
    1770:	e5943008 	ldr	r3, [r4, #8]
		now_jiffies = get_jiffies_64();
    1774:	e1a08001 	mov	r8, r1
    1778:	e1a0e000 	mov	lr, r0
	sis->dest_ip_xlate.ip6[0] = c->dest_ip_xlate[0];
    177c:	e1c464d4 	ldrd	r6, [r4, #68]	@ 0x44
	sis->is_v6 = 1;
    1780:	e3a0c001 	mov	ip, #1
	sis->src_port = c->src_port;
    1784:	e594104c 	ldr	r1, [r4, #76]	@ 0x4c
	reply_cm = c->reply_match;
    1788:	e594205c 	ldr	r2, [r4, #92]	@ 0x5c
	sis->is_v6 = 1;
    178c:	e50bc0dc 	str	ip, [fp, #-220]	@ 0xffffff24
	sis->protocol = c->protocol;
    1790:	e50b30d8 	str	r3, [fp, #-216]	@ 0xffffff28
	sis->dest_port = c->dest_port;
    1794:	e5943050 	ldr	r3, [r4, #80]	@ 0x50
	sis->dest_ip_xlate.ip6[0] = c->dest_ip_xlate[0];
    1798:	e14b69f8 	strd	r6, [fp, #-152]	@ 0xffffff68
	sis->src_port = c->src_port;
    179c:	e50b10b4 	str	r1, [fp, #-180]	@ 0xffffff4c
	sis->src_ip.ip6[0] = c->src_ip[0];
    17a0:	e1c400dc 	ldrd	r0, [r4, #12]
	sis->dest_port = c->dest_port;
    17a4:	e50b3090 	str	r3, [fp, #-144]	@ 0xffffff70
	original_cm = c->original_match;
    17a8:	e5943054 	ldr	r3, [r4, #84]	@ 0x54
	sis->src_ip.ip6[0] = c->src_ip[0];
    17ac:	e14b0df4 	strd	r0, [fp, #-212]	@ 0xffffff2c
	cm->rx_packet_count64 += cm->rx_packet_count;
    17b0:	e3a01000 	mov	r1, #0
		sync_rule_callback(&sis);
    17b4:	e24b00e4 	sub	r0, fp, #228	@ 0xe4
	sis->src_td_max_window = original_cm->protocol_state.tcp.max_win;
    17b8:	e5936054 	ldr	r6, [r3, #84]	@ 0x54
    17bc:	e50b608c 	str	r6, [fp, #-140]	@ 0xffffff74
	sis->src_td_end = original_cm->protocol_state.tcp.end;
    17c0:	e5936058 	ldr	r6, [r3, #88]	@ 0x58
    17c4:	e50b6088 	str	r6, [fp, #-136]	@ 0xffffff78
	sis->src_td_max_end = original_cm->protocol_state.tcp.max_end;
    17c8:	e593605c 	ldr	r6, [r3, #92]	@ 0x5c
    17cc:	e50b6084 	str	r6, [fp, #-132]	@ 0xffffff7c
	sis->src_ip.ip6[0] = c->src_ip[0];
    17d0:	e1c461d4 	ldrd	r6, [r4, #20]
	sis->dest_td_max_window = reply_cm->protocol_state.tcp.max_win;
    17d4:	e5929054 	ldr	r9, [r2, #84]	@ 0x54
	sis->src_ip.ip6[0] = c->src_ip[0];
    17d8:	e14b6cfc 	strd	r6, [fp, #-204]	@ 0xffffff34
	sis->src_ip_xlate.ip6[0] = c->src_ip_xlate[0];
    17dc:	e1c461dc 	ldrd	r6, [r4, #28]
    17e0:	e14b6cf4 	strd	r6, [fp, #-196]	@ 0xffffff3c
    17e4:	e1c462d4 	ldrd	r6, [r4, #36]	@ 0x24
    17e8:	e14b6bfc 	strd	r6, [fp, #-188]	@ 0xffffff44
	sis->dest_ip.ip6[0] = c->dest_ip[0];
    17ec:	e1c462dc 	ldrd	r6, [r4, #44]	@ 0x2c
    17f0:	e14b6bf0 	strd	r6, [fp, #-176]	@ 0xffffff50
    17f4:	e1c463d4 	ldrd	r6, [r4, #52]	@ 0x34
    17f8:	e14b6af8 	strd	r6, [fp, #-168]	@ 0xffffff58
	sis->dest_ip_xlate.ip6[0] = c->dest_ip_xlate[0];
    17fc:	e1c463dc 	ldrd	r6, [r4, #60]	@ 0x3c
    1800:	e14b6af0 	strd	r6, [fp, #-160]	@ 0xffffff60
	sis->dest_td_max_window = reply_cm->protocol_state.tcp.max_win;
    1804:	e50b9064 	str	r9, [fp, #-100]	@ 0xffffff9c
	sis->dest_td_end = reply_cm->protocol_state.tcp.end;
    1808:	e5926058 	ldr	r6, [r2, #88]	@ 0x58
    180c:	e50b6060 	str	r6, [fp, #-96]	@ 0xffffffa0
	sis->dest_td_max_end = reply_cm->protocol_state.tcp.max_end;
    1810:	e592605c 	ldr	r6, [r2, #92]	@ 0x5c
    1814:	e50b605c 	str	r6, [fp, #-92]	@ 0xffffffa4
	sis->src_new_packet_count = original_cm->rx_packet_count;
    1818:	e5936060 	ldr	r6, [r3, #96]	@ 0x60
    181c:	e50b606c 	str	r6, [fp, #-108]	@ 0xffffff94
	sis->src_new_byte_count = original_cm->rx_byte_count;
    1820:	e5936064 	ldr	r6, [r3, #100]	@ 0x64
    1824:	e50b6068 	str	r6, [fp, #-104]	@ 0xffffff98
	sis->dest_new_packet_count = reply_cm->rx_packet_count;
    1828:	e5926060 	ldr	r6, [r2, #96]	@ 0x60
    182c:	e50b6044 	str	r6, [fp, #-68]	@ 0xffffffbc
	sis->dest_new_byte_count = reply_cm->rx_byte_count;
    1830:	e5926064 	ldr	r6, [r2, #100]	@ 0x64
    1834:	e50b6040 	str	r6, [fp, #-64]	@ 0xffffffc0
	cm->rx_packet_count64 += cm->rx_packet_count;
    1838:	e5937060 	ldr	r7, [r3, #96]	@ 0x60
    183c:	e59360b0 	ldr	r6, [r3, #176]	@ 0xb0
	cm->rx_packet_count = 0;
    1840:	e5831060 	str	r1, [r3, #96]	@ 0x60
	cm->rx_packet_count64 += cm->rx_packet_count;
    1844:	e0966007 	adds	r6, r6, r7
	cm->rx_byte_count64 += cm->rx_byte_count;
    1848:	e5937064 	ldr	r7, [r3, #100]	@ 0x64
	cm->rx_byte_count = 0;
    184c:	e5831064 	str	r1, [r3, #100]	@ 0x64
	cm->rx_packet_count64 += cm->rx_packet_count;
    1850:	e58360b0 	str	r6, [r3, #176]	@ 0xb0
    1854:	e59360b4 	ldr	r6, [r3, #180]	@ 0xb4
    1858:	e2a66000 	adc	r6, r6, #0
    185c:	e58360b4 	str	r6, [r3, #180]	@ 0xb4
	cm->rx_byte_count64 += cm->rx_byte_count;
    1860:	e59360b8 	ldr	r6, [r3, #184]	@ 0xb8
    1864:	e0966007 	adds	r6, r6, r7
    1868:	e58360b8 	str	r6, [r3, #184]	@ 0xb8
    186c:	e59360bc 	ldr	r6, [r3, #188]	@ 0xbc
    1870:	e2a66000 	adc	r6, r6, #0
    1874:	e58360bc 	str	r6, [r3, #188]	@ 0xbc
	cm->rx_packet_count64 += cm->rx_packet_count;
    1878:	e5927060 	ldr	r7, [r2, #96]	@ 0x60
    187c:	e59260b0 	ldr	r6, [r2, #176]	@ 0xb0
	cm->rx_packet_count = 0;
    1880:	e5821060 	str	r1, [r2, #96]	@ 0x60
	cm->rx_packet_count64 += cm->rx_packet_count;
    1884:	e59290b4 	ldr	r9, [r2, #180]	@ 0xb4
    1888:	e0976006 	adds	r6, r7, r6
    188c:	e2a99000 	adc	r9, r9, #0
    1890:	e50b60e8 	str	r6, [fp, #-232]	@ 0xffffff18
    1894:	e58260b0 	str	r6, [r2, #176]	@ 0xb0
	cm->rx_byte_count64 += cm->rx_byte_count;
    1898:	e5926064 	ldr	r6, [r2, #100]	@ 0x64
	cm->rx_packet_count64 += cm->rx_packet_count;
    189c:	e58290b4 	str	r9, [r2, #180]	@ 0xb4
	cm->rx_byte_count64 += cm->rx_byte_count;
    18a0:	e592a0b8 	ldr	sl, [r2, #184]	@ 0xb8
	cm->rx_byte_count = 0;
    18a4:	e5821064 	str	r1, [r2, #100]	@ 0x64
	cm->rx_byte_count64 += cm->rx_byte_count;
    18a8:	e096600a 	adds	r6, r6, sl
    18ac:	e592a0bc 	ldr	sl, [r2, #188]	@ 0xbc
    18b0:	e58260b8 	str	r6, [r2, #184]	@ 0xb8
    18b4:	e50b60ec 	str	r6, [fp, #-236]	@ 0xffffff14
    18b8:	e2aa1000 	adc	r1, sl, #0
    18bc:	e58210bc 	str	r1, [r2, #188]	@ 0xbc
	sis->delta_jiffies = now_jiffies - c->last_sync_jiffies;
    18c0:	e594a068 	ldr	sl, [r4, #104]	@ 0x68
	sis->src_dev = original_cm->match_dev;
    18c4:	e593701c 	ldr	r7, [r3, #28]
	sis->delta_jiffies = now_jiffies - c->last_sync_jiffies;
    18c8:	e05e600a 	subs	r6, lr, sl
    18cc:	e594a06c 	ldr	sl, [r4, #108]	@ 0x6c
    18d0:	e50b60f0 	str	r6, [fp, #-240]	@ 0xffffff10
	sis->src_dev = original_cm->match_dev;
    18d4:	e50b70e4 	str	r7, [fp, #-228]	@ 0xffffff1c
	sis->src_packet_count = original_cm->rx_packet_count64;
    18d8:	e1c36bd0 	ldrd	r6, [r3, #176]	@ 0xb0
	sis->delta_jiffies = now_jiffies - c->last_sync_jiffies;
    18dc:	e0c8a00a 	sbc	sl, r8, sl
	sis->src_packet_count = original_cm->rx_packet_count64;
    18e0:	e14b67fc 	strd	r6, [fp, #-124]	@ 0xffffff84
	sis->src_byte_count = original_cm->rx_byte_count64;
    18e4:	e1c36bd8 	ldrd	r6, [r3, #184]	@ 0xb8
    18e8:	e14b67f4 	strd	r6, [fp, #-116]	@ 0xffffff8c
	sis->dest_packet_count = reply_cm->rx_packet_count64;
    18ec:	e51b60e8 	ldr	r6, [fp, #-232]	@ 0xffffff18
	sis->dest_dev = reply_cm->match_dev;
    18f0:	e592301c 	ldr	r3, [r2, #28]
	c->last_sync_jiffies = now_jiffies;
    18f4:	e584e068 	str	lr, [r4, #104]	@ 0x68
	sis->dest_byte_count = reply_cm->rx_byte_count64;
    18f8:	e51b20ec 	ldr	r2, [fp, #-236]	@ 0xffffff14
	c->last_sync_jiffies = now_jiffies;
    18fc:	e584806c 	str	r8, [r4, #108]	@ 0x6c
	sis->dest_packet_count = reply_cm->rx_packet_count64;
    1900:	e50b9050 	str	r9, [fp, #-80]	@ 0xffffffb0
    1904:	e50b6054 	str	r6, [fp, #-84]	@ 0xffffffac
	sis->delta_jiffies = now_jiffies - c->last_sync_jiffies;
    1908:	e51b60f0 	ldr	r6, [fp, #-240]	@ 0xffffff10
	sis->dest_dev = reply_cm->match_dev;
    190c:	e50b30e0 	str	r3, [fp, #-224]	@ 0xffffff20
	sis->dest_byte_count = reply_cm->rx_byte_count64;
    1910:	e50b204c 	str	r2, [fp, #-76]	@ 0xffffffb4
    1914:	e50b1048 	str	r1, [fp, #-72]	@ 0xffffffb8
	sis->reason = reason;
    1918:	e50bc03c 	str	ip, [fp, #-60]	@ 0xffffffc4
	sis->delta_jiffies = now_jiffies - c->last_sync_jiffies;
    191c:	e50b6034 	str	r6, [fp, #-52]	@ 0xffffffcc
    1920:	e50ba030 	str	sl, [fp, #-48]	@ 0xffffffd0
		sync_rule_callback(&sis);
    1924:	e12fff35 	blx	r5
	dev_put(c->original_dev);
    1928:	e5943058 	ldr	r3, [r4, #88]	@ 0x58
}

static inline void netdev_put(struct net_device *dev,
			      netdevice_tracker *tracker)
{
	if (dev) {
    192c:	e3530000 	cmp	r3, #0
    1930:	0a000007 	beq	1954 <sfe_ipv6_flush_connection.constprop.1+0x230>
	asm volatile(
    1934:	e10f0000 	mrs	r0, CPSR
    1938:	f10c0080 	cpsid	i
		this_cpu_dec(*dev->pcpu_refcnt);
    193c:	e5933310 	ldr	r3, [r3, #784]	@ 0x310
    1940:	ee1d1f90 	mrc	15, 0, r1, cr13, cr0, {4}
    1944:	e7932001 	ldr	r2, [r3, r1]
    1948:	e2422001 	sub	r2, r2, #1
    194c:	e7832001 	str	r2, [r3, r1]
	asm volatile(
    1950:	e121f000 	msr	CPSR_c, r0
	dev_put(c->reply_dev);
    1954:	e5943060 	ldr	r3, [r4, #96]	@ 0x60
	if (dev) {
    1958:	e3530000 	cmp	r3, #0
    195c:	0a000007 	beq	1980 <sfe_ipv6_flush_connection.constprop.1+0x25c>
	asm volatile(
    1960:	e10f0000 	mrs	r0, CPSR
    1964:	f10c0080 	cpsid	i
		this_cpu_dec(*dev->pcpu_refcnt);
    1968:	e5933310 	ldr	r3, [r3, #784]	@ 0x310
    196c:	ee1d1f90 	mrc	15, 0, r1, cr13, cr0, {4}
    1970:	e7932001 	ldr	r2, [r3, r1]
    1974:	e2422001 	sub	r2, r2, #1
    1978:	e7832001 	str	r2, [r3, r1]
	asm volatile(
    197c:	e121f000 	msr	CPSR_c, r0
	kfree(c->original_match);
    1980:	e5940054 	ldr	r0, [r4, #84]	@ 0x54
    1984:	ebfffffe 	bl	0 <kfree>
	kfree(c->reply_match);
    1988:	e594005c 	ldr	r0, [r4, #92]	@ 0x5c
    198c:	ebfffffe 	bl	0 <kfree>
	kfree(c);
    1990:	e1a00004 	mov	r0, r4
    1994:	ebfffffe 	bl	0 <kfree>
}
    1998:	e24bd028 	sub	sp, fp, #40	@ 0x28
    199c:	e89daff0 	ldm	sp, {r4, r5, r6, r7, r8, r9, sl, fp, sp, pc}

000019a0 <sfe_ipv4_update_tcp_state.isra.0>:
sfe_ipv4_update_tcp_state(struct sfe_ipv4_connection *c,
    19a0:	e1a0c00d 	mov	ip, sp
    19a4:	e92dd800 	push	{fp, ip, lr, pc}
    19a8:	e24cb004 	sub	fp, ip, #4
	if (orig_tcp->max_win < sic->src_td_max_window) {
    19ac:	e590c03c 	ldr	ip, [r0, #60]	@ 0x3c
    19b0:	e592307c 	ldr	r3, [r2, #124]	@ 0x7c
    19b4:	e15c0003 	cmp	ip, r3
		orig_tcp->max_win = sic->src_td_max_window;
    19b8:	3580303c 	strcc	r3, [r0, #60]	@ 0x3c
	if ((s32)(orig_tcp->end - sic->src_td_end) < 0) {
    19bc:	e5903040 	ldr	r3, [r0, #64]	@ 0x40
    19c0:	e592c080 	ldr	ip, [r2, #128]	@ 0x80
    19c4:	e043300c 	sub	r3, r3, ip
    19c8:	e3530000 	cmp	r3, #0
	if ((s32)(orig_tcp->max_end - sic->src_td_max_end) < 0) {
    19cc:	e5903044 	ldr	r3, [r0, #68]	@ 0x44
		orig_tcp->end = sic->src_td_end;
    19d0:	b580c040 	strlt	ip, [r0, #64]	@ 0x40
	if ((s32)(orig_tcp->max_end - sic->src_td_max_end) < 0) {
    19d4:	e592c084 	ldr	ip, [r2, #132]	@ 0x84
    19d8:	e043300c 	sub	r3, r3, ip
    19dc:	e3530000 	cmp	r3, #0
		orig_tcp->max_end = sic->src_td_max_end;
    19e0:	b580c044 	strlt	ip, [r0, #68]	@ 0x44
	if (repl_tcp->max_win < sic->dest_td_max_window) {
    19e4:	e591c03c 	ldr	ip, [r1, #60]	@ 0x3c
    19e8:	e592308c 	ldr	r3, [r2, #140]	@ 0x8c
    19ec:	e15c0003 	cmp	ip, r3
		repl_tcp->max_win = sic->dest_td_max_window;
    19f0:	3581303c 	strcc	r3, [r1, #60]	@ 0x3c
	if ((s32)(repl_tcp->end - sic->dest_td_end) < 0) {
    19f4:	e5913040 	ldr	r3, [r1, #64]	@ 0x40
    19f8:	e592c090 	ldr	ip, [r2, #144]	@ 0x90
    19fc:	e043300c 	sub	r3, r3, ip
    1a00:	e3530000 	cmp	r3, #0
	if ((s32)(repl_tcp->max_end - sic->dest_td_max_end) < 0) {
    1a04:	e5913044 	ldr	r3, [r1, #68]	@ 0x44
		repl_tcp->end = sic->dest_td_end;
    1a08:	b581c040 	strlt	ip, [r1, #64]	@ 0x40
	if ((s32)(repl_tcp->max_end - sic->dest_td_max_end) < 0) {
    1a0c:	e592c094 	ldr	ip, [r2, #148]	@ 0x94
    1a10:	e043300c 	sub	r3, r3, ip
    1a14:	e3530000 	cmp	r3, #0
		repl_tcp->max_end = sic->dest_td_max_end;
    1a18:	b581c044 	strlt	ip, [r1, #68]	@ 0x44
	orig_cm->flags &= ~SFE_IPV4_CONNECTION_MATCH_FLAG_NO_SEQ_CHECK;
    1a1c:	e5903030 	ldr	r3, [r0, #48]	@ 0x30
    1a20:	e3c33004 	bic	r3, r3, #4
    1a24:	e5803030 	str	r3, [r0, #48]	@ 0x30
	repl_cm->flags &= ~SFE_IPV4_CONNECTION_MATCH_FLAG_NO_SEQ_CHECK;
    1a28:	e5913030 	ldr	r3, [r1, #48]	@ 0x30
    1a2c:	e3c33004 	bic	r3, r3, #4
    1a30:	e5813030 	str	r3, [r1, #48]	@ 0x30
	if (sic->flags & SFE_CREATE_FLAG_NO_SEQ_CHECK) {
    1a34:	e592300c 	ldr	r3, [r2, #12]
    1a38:	e3130001 	tst	r3, #1
    1a3c:	0a000005 	beq	1a58 <sfe_ipv4_update_tcp_state.isra.0+0xb8>
		orig_cm->flags |= SFE_IPV4_CONNECTION_MATCH_FLAG_NO_SEQ_CHECK;
    1a40:	e5903030 	ldr	r3, [r0, #48]	@ 0x30
    1a44:	e3833004 	orr	r3, r3, #4
    1a48:	e5803030 	str	r3, [r0, #48]	@ 0x30
		repl_cm->flags |= SFE_IPV4_CONNECTION_MATCH_FLAG_NO_SEQ_CHECK;
    1a4c:	e5913030 	ldr	r3, [r1, #48]	@ 0x30
    1a50:	e3833004 	orr	r3, r3, #4
    1a54:	e5813030 	str	r3, [r1, #48]	@ 0x30
}
    1a58:	e24bd00c 	sub	sp, fp, #12
    1a5c:	e89da800 	ldm	sp, {fp, sp, pc}

00001a60 <sfe_ipv4_gen_sync_sfe_ipv4_connection.isra.0>:
static void sfe_ipv4_gen_sync_sfe_ipv4_connection(struct sfe_ipv4 *si, struct sfe_ipv4_connection *c,
    1a60:	e1a0c00d 	mov	ip, sp
    1a64:	e92dd9f0 	push	{r4, r5, r6, r7, r8, fp, ip, lr, pc}
    1a68:	e24cb004 	sub	fp, ip, #4
	sis->is_v6 = 0;
    1a6c:	e3a03000 	mov	r3, #0
static void sfe_ipv4_gen_sync_sfe_ipv4_connection(struct sfe_ipv4 *si, struct sfe_ipv4_connection *c,
    1a70:	e99b5000 	ldmib	fp, {ip, lr}
	sis->is_v6 = 0;
    1a74:	e5813008 	str	r3, [r1, #8]
	sis->protocol = c->protocol;
    1a78:	e5903008 	ldr	r3, [r0, #8]
    1a7c:	e581300c 	str	r3, [r1, #12]
	sis->src_ip.ip = c->src_ip;
    1a80:	e590300c 	ldr	r3, [r0, #12]
    1a84:	e5813010 	str	r3, [r1, #16]
	sis->src_ip_xlate.ip = c->src_ip_xlate;
    1a88:	e5903010 	ldr	r3, [r0, #16]
    1a8c:	e5813020 	str	r3, [r1, #32]
	sis->dest_ip.ip = c->dest_ip;
    1a90:	e5903014 	ldr	r3, [r0, #20]
    1a94:	e5813034 	str	r3, [r1, #52]	@ 0x34
	sis->dest_ip_xlate.ip = c->dest_ip_xlate;
    1a98:	e5903018 	ldr	r3, [r0, #24]
    1a9c:	e5813044 	str	r3, [r1, #68]	@ 0x44
	sis->src_port = c->src_port;
    1aa0:	e1d031bc 	ldrh	r3, [r0, #28]
    1aa4:	e1c133b0 	strh	r3, [r1, #48]	@ 0x30
	sis->src_port_xlate = c->src_port_xlate;
    1aa8:	e1d031be 	ldrh	r3, [r0, #30]
    1aac:	e1c133b2 	strh	r3, [r1, #50]	@ 0x32
	sis->dest_port = c->dest_port;
    1ab0:	e1d032b0 	ldrh	r3, [r0, #32]
    1ab4:	e1c135b4 	strh	r3, [r1, #84]	@ 0x54
	sis->dest_port_xlate = c->dest_port_xlate;
    1ab8:	e1d032b2 	ldrh	r3, [r0, #34]	@ 0x22
    1abc:	e1c135b6 	strh	r3, [r1, #86]	@ 0x56
	original_cm = c->original_match;
    1ac0:	e5906024 	ldr	r6, [r0, #36]	@ 0x24
	reply_cm = c->reply_match;
    1ac4:	e590302c 	ldr	r3, [r0, #44]	@ 0x2c
	sis->src_td_max_window = original_cm->protocol_state.tcp.max_win;
    1ac8:	e596403c 	ldr	r4, [r6, #60]	@ 0x3c
    1acc:	e5814058 	str	r4, [r1, #88]	@ 0x58
	sis->src_td_end = original_cm->protocol_state.tcp.end;
    1ad0:	e5964040 	ldr	r4, [r6, #64]	@ 0x40
    1ad4:	e581405c 	str	r4, [r1, #92]	@ 0x5c
	sis->src_td_max_end = original_cm->protocol_state.tcp.max_end;
    1ad8:	e5964044 	ldr	r4, [r6, #68]	@ 0x44
    1adc:	e5814060 	str	r4, [r1, #96]	@ 0x60
	sis->dest_td_max_window = reply_cm->protocol_state.tcp.max_win;
    1ae0:	e593403c 	ldr	r4, [r3, #60]	@ 0x3c
    1ae4:	e5814080 	str	r4, [r1, #128]	@ 0x80
	sis->dest_td_end = reply_cm->protocol_state.tcp.end;
    1ae8:	e5934040 	ldr	r4, [r3, #64]	@ 0x40
    1aec:	e5814084 	str	r4, [r1, #132]	@ 0x84
	sis->dest_td_max_end = reply_cm->protocol_state.tcp.max_end;
    1af0:	e5934044 	ldr	r4, [r3, #68]	@ 0x44
    1af4:	e5814088 	str	r4, [r1, #136]	@ 0x88
	sis->src_new_packet_count = original_cm->rx_packet_count;
    1af8:	e5964048 	ldr	r4, [r6, #72]	@ 0x48
    1afc:	e5814078 	str	r4, [r1, #120]	@ 0x78
	sis->src_new_byte_count = original_cm->rx_byte_count;
    1b00:	e596404c 	ldr	r4, [r6, #76]	@ 0x4c
    1b04:	e581407c 	str	r4, [r1, #124]	@ 0x7c
	sis->dest_new_packet_count = reply_cm->rx_packet_count;
    1b08:	e5934048 	ldr	r4, [r3, #72]	@ 0x48
    1b0c:	e58140a0 	str	r4, [r1, #160]	@ 0xa0
	sis->dest_new_byte_count = reply_cm->rx_byte_count;
    1b10:	e593404c 	ldr	r4, [r3, #76]	@ 0x4c
    1b14:	e58140a4 	str	r4, [r1, #164]	@ 0xa4
	cm->rx_packet_count64 += cm->rx_packet_count;
    1b18:	e5965048 	ldr	r5, [r6, #72]	@ 0x48
    1b1c:	e5964088 	ldr	r4, [r6, #136]	@ 0x88
    1b20:	e0944005 	adds	r4, r4, r5
	cm->rx_byte_count64 += cm->rx_byte_count;
    1b24:	e596504c 	ldr	r5, [r6, #76]	@ 0x4c
	cm->rx_packet_count64 += cm->rx_packet_count;
    1b28:	e5864088 	str	r4, [r6, #136]	@ 0x88
    1b2c:	e596408c 	ldr	r4, [r6, #140]	@ 0x8c
    1b30:	e2a44000 	adc	r4, r4, #0
    1b34:	e586408c 	str	r4, [r6, #140]	@ 0x8c
	cm->rx_byte_count64 += cm->rx_byte_count;
    1b38:	e5964090 	ldr	r4, [r6, #144]	@ 0x90
    1b3c:	e0944005 	adds	r4, r4, r5
	cm->rx_packet_count = 0;
    1b40:	e3a05000 	mov	r5, #0
	cm->rx_byte_count64 += cm->rx_byte_count;
    1b44:	e5864090 	str	r4, [r6, #144]	@ 0x90
    1b48:	e5964094 	ldr	r4, [r6, #148]	@ 0x94
    1b4c:	e2a44000 	adc	r4, r4, #0
    1b50:	e5864094 	str	r4, [r6, #148]	@ 0x94
	cm->rx_packet_count = 0;
    1b54:	e3a04000 	mov	r4, #0
    1b58:	e1c644f8 	strd	r4, [r6, #72]	@ 0x48
	cm->rx_packet_count64 += cm->rx_packet_count;
    1b5c:	e5937048 	ldr	r7, [r3, #72]	@ 0x48
    1b60:	e5938088 	ldr	r8, [r3, #136]	@ 0x88
    1b64:	e0987007 	adds	r7, r8, r7
    1b68:	e5837088 	str	r7, [r3, #136]	@ 0x88
	cm->rx_byte_count64 += cm->rx_byte_count;
    1b6c:	e593704c 	ldr	r7, [r3, #76]	@ 0x4c
	cm->rx_packet_count = 0;
    1b70:	e1c344f8 	strd	r4, [r3, #72]	@ 0x48
	cm->rx_packet_count64 += cm->rx_packet_count;
    1b74:	e593408c 	ldr	r4, [r3, #140]	@ 0x8c
    1b78:	e2a44000 	adc	r4, r4, #0
    1b7c:	e583408c 	str	r4, [r3, #140]	@ 0x8c
	cm->rx_byte_count64 += cm->rx_byte_count;
    1b80:	e5934090 	ldr	r4, [r3, #144]	@ 0x90
    1b84:	e0944007 	adds	r4, r4, r7
    1b88:	e5834090 	str	r4, [r3, #144]	@ 0x90
    1b8c:	e5934094 	ldr	r4, [r3, #148]	@ 0x94
    1b90:	e2a44000 	adc	r4, r4, #0
    1b94:	e5834094 	str	r4, [r3, #148]	@ 0x94
	sis->src_dev = original_cm->match_dev;
    1b98:	e596401c 	ldr	r4, [r6, #28]
    1b9c:	e5814000 	str	r4, [r1]
	sis->src_packet_count = original_cm->rx_packet_count64;
    1ba0:	e1c648d8 	ldrd	r4, [r6, #136]	@ 0x88
    1ba4:	e1c146f8 	strd	r4, [r1, #104]	@ 0x68
	sis->src_byte_count = original_cm->rx_byte_count64;
    1ba8:	e1c649d0 	ldrd	r4, [r6, #144]	@ 0x90
    1bac:	e1c147f0 	strd	r4, [r1, #112]	@ 0x70
	sis->dest_dev = reply_cm->match_dev;
    1bb0:	e593401c 	ldr	r4, [r3, #28]
    1bb4:	e5814004 	str	r4, [r1, #4]
	sis->dest_packet_count = reply_cm->rx_packet_count64;
    1bb8:	e1c348d8 	ldrd	r4, [r3, #136]	@ 0x88
    1bbc:	e1c149f0 	strd	r4, [r1, #144]	@ 0x90
	sis->dest_byte_count = reply_cm->rx_byte_count64;
    1bc0:	e1c349d0 	ldrd	r4, [r3, #144]	@ 0x90
    1bc4:	e1c149f8 	strd	r4, [r1, #152]	@ 0x98
	sis->reason = reason;
    1bc8:	e58120a8 	str	r2, [r1, #168]	@ 0xa8
	sis->delta_jiffies = now_jiffies - c->last_sync_jiffies;
    1bcc:	e5903038 	ldr	r3, [r0, #56]	@ 0x38
    1bd0:	e590203c 	ldr	r2, [r0, #60]	@ 0x3c
    1bd4:	e05c3003 	subs	r3, ip, r3
    1bd8:	e0ce2002 	sbc	r2, lr, r2
    1bdc:	e58130b0 	str	r3, [r1, #176]	@ 0xb0
    1be0:	e58120b4 	str	r2, [r1, #180]	@ 0xb4
	c->last_sync_jiffies = now_jiffies;
    1be4:	e580c038 	str	ip, [r0, #56]	@ 0x38
    1be8:	e580e03c 	str	lr, [r0, #60]	@ 0x3c
}
    1bec:	e24bd020 	sub	sp, fp, #32
    1bf0:	e89da9f0 	ldm	sp, {r4, r5, r6, r7, r8, fp, sp, pc}

00001bf4 <sfe_ipv4_flush_sfe_ipv4_connection.constprop.1>:
static void sfe_ipv4_flush_sfe_ipv4_connection(struct sfe_ipv4 *si,
    1bf4:	e1a0c00d 	mov	ip, sp
    1bf8:	e92dd830 	push	{r4, r5, fp, ip, lr, pc}
    1bfc:	e24cb004 	sub	fp, ip, #4
    1c00:	e24dd0c0 	sub	sp, sp, #192	@ 0xc0
    1c04:	e1a04000 	mov	r4, r0
	raw_spin_lock_bh(&lock->rlock);
    1c08:	e3005000 	movw	r5, #0
    1c0c:	e3405000 	movt	r5, #0
    1c10:	e1a00005 	mov	r0, r5
    1c14:	ebfffffe 	bl	0 <_raw_spin_lock_bh>
	si->connection_flushes++;
    1c18:	e2852902 	add	r2, r5, #32768	@ 0x8000
	raw_spin_unlock_bh(&lock->rlock);
    1c1c:	e1a00005 	mov	r0, r5
	sync_rule_callback = rcu_dereference(si->sync_rule_callback);
    1c20:	e595502c 	ldr	r5, [r5, #44]	@ 0x2c
	si->connection_flushes++;
    1c24:	e5923048 	ldr	r3, [r2, #72]	@ 0x48
    1c28:	e2833001 	add	r3, r3, #1
    1c2c:	e5823048 	str	r3, [r2, #72]	@ 0x48
    1c30:	ebfffffe 	bl	0 <_raw_spin_unlock_bh>
	if (sync_rule_callback) {
    1c34:	e3550000 	cmp	r5, #0
    1c38:	0a000007 	beq	1c5c <sfe_ipv4_flush_sfe_ipv4_connection.constprop.1+0x68>
		now_jiffies = get_jiffies_64();
    1c3c:	ebfffffe 	bl	0 <get_jiffies_64>
		sfe_ipv4_gen_sync_sfe_ipv4_connection(si, c, &sis, reason, now_jiffies);
    1c40:	e3a02001 	mov	r2, #1
    1c44:	e1cd00f0 	strd	r0, [sp]
    1c48:	e24b10cc 	sub	r1, fp, #204	@ 0xcc
    1c4c:	e1a00004 	mov	r0, r4
    1c50:	ebffff82 	bl	1a60 <sfe_ipv4_gen_sync_sfe_ipv4_connection.isra.0>
		sync_rule_callback(&sis);
    1c54:	e1a00001 	mov	r0, r1
    1c58:	e12fff35 	blx	r5
	dev_put(c->original_dev);
    1c5c:	e5943028 	ldr	r3, [r4, #40]	@ 0x28
	if (dev) {
    1c60:	e3530000 	cmp	r3, #0
    1c64:	0a000007 	beq	1c88 <sfe_ipv4_flush_sfe_ipv4_connection.constprop.1+0x94>
	asm volatile(
    1c68:	e10f0000 	mrs	r0, CPSR
    1c6c:	f10c0080 	cpsid	i
		this_cpu_dec(*dev->pcpu_refcnt);
    1c70:	e5933310 	ldr	r3, [r3, #784]	@ 0x310
    1c74:	ee1d1f90 	mrc	15, 0, r1, cr13, cr0, {4}
    1c78:	e7932001 	ldr	r2, [r3, r1]
    1c7c:	e2422001 	sub	r2, r2, #1
    1c80:	e7832001 	str	r2, [r3, r1]
	asm volatile(
    1c84:	e121f000 	msr	CPSR_c, r0
	dev_put(c->reply_dev);
    1c88:	e5943030 	ldr	r3, [r4, #48]	@ 0x30
	if (dev) {
    1c8c:	e3530000 	cmp	r3, #0
    1c90:	0a000007 	beq	1cb4 <sfe_ipv4_flush_sfe_ipv4_connection.constprop.1+0xc0>
	asm volatile(
    1c94:	e10f0000 	mrs	r0, CPSR
    1c98:	f10c0080 	cpsid	i
		this_cpu_dec(*dev->pcpu_refcnt);
    1c9c:	e5933310 	ldr	r3, [r3, #784]	@ 0x310
    1ca0:	ee1d1f90 	mrc	15, 0, r1, cr13, cr0, {4}
    1ca4:	e7932001 	ldr	r2, [r3, r1]
    1ca8:	e2422001 	sub	r2, r2, #1
    1cac:	e7832001 	str	r2, [r3, r1]
	asm volatile(
    1cb0:	e121f000 	msr	CPSR_c, r0
	kfree(c->original_match);
    1cb4:	e5940024 	ldr	r0, [r4, #36]	@ 0x24
    1cb8:	ebfffffe 	bl	0 <kfree>
	kfree(c->reply_match);
    1cbc:	e594002c 	ldr	r0, [r4, #44]	@ 0x2c
    1cc0:	ebfffffe 	bl	0 <kfree>
	kfree(c);
    1cc4:	e1a00004 	mov	r0, r4
    1cc8:	ebfffffe 	bl	0 <kfree>
}
    1ccc:	e24bd014 	sub	sp, fp, #20
    1cd0:	e89da830 	ldm	sp, {r4, r5, fp, sp, pc}

00001cd4 <sfe_ipv4_flush_sfe_ipv4_connection.constprop.0>:
static void sfe_ipv4_flush_sfe_ipv4_connection(struct sfe_ipv4 *si,
    1cd4:	e1a0c00d 	mov	ip, sp
    1cd8:	e92dd830 	push	{r4, r5, fp, ip, lr, pc}
    1cdc:	e24cb004 	sub	fp, ip, #4
    1ce0:	e24dd0c0 	sub	sp, sp, #192	@ 0xc0
    1ce4:	e1a04000 	mov	r4, r0
	raw_spin_lock_bh(&lock->rlock);
    1ce8:	e3005000 	movw	r5, #0
    1cec:	e3405000 	movt	r5, #0
    1cf0:	e1a00005 	mov	r0, r5
    1cf4:	ebfffffe 	bl	0 <_raw_spin_lock_bh>
	si->connection_flushes++;
    1cf8:	e2852902 	add	r2, r5, #32768	@ 0x8000
	raw_spin_unlock_bh(&lock->rlock);
    1cfc:	e1a00005 	mov	r0, r5
	sync_rule_callback = rcu_dereference(si->sync_rule_callback);
    1d00:	e595502c 	ldr	r5, [r5, #44]	@ 0x2c
	si->connection_flushes++;
    1d04:	e5923048 	ldr	r3, [r2, #72]	@ 0x48
    1d08:	e2833001 	add	r3, r3, #1
    1d0c:	e5823048 	str	r3, [r2, #72]	@ 0x48
    1d10:	ebfffffe 	bl	0 <_raw_spin_unlock_bh>
	if (sync_rule_callback) {
    1d14:	e3550000 	cmp	r5, #0
    1d18:	0a000007 	beq	1d3c <sfe_ipv4_flush_sfe_ipv4_connection.constprop.0+0x68>
		now_jiffies = get_jiffies_64();
    1d1c:	ebfffffe 	bl	0 <get_jiffies_64>
		sfe_ipv4_gen_sync_sfe_ipv4_connection(si, c, &sis, reason, now_jiffies);
    1d20:	e3a02002 	mov	r2, #2
    1d24:	e1cd00f0 	strd	r0, [sp]
    1d28:	e24b10cc 	sub	r1, fp, #204	@ 0xcc
    1d2c:	e1a00004 	mov	r0, r4
    1d30:	ebffff4a 	bl	1a60 <sfe_ipv4_gen_sync_sfe_ipv4_connection.isra.0>
		sync_rule_callback(&sis);
    1d34:	e1a00001 	mov	r0, r1
    1d38:	e12fff35 	blx	r5
	dev_put(c->original_dev);
    1d3c:	e5943028 	ldr	r3, [r4, #40]	@ 0x28
	if (dev) {
    1d40:	e3530000 	cmp	r3, #0
    1d44:	0a000007 	beq	1d68 <sfe_ipv4_flush_sfe_ipv4_connection.constprop.0+0x94>
	asm volatile(
    1d48:	e10f0000 	mrs	r0, CPSR
    1d4c:	f10c0080 	cpsid	i
		this_cpu_dec(*dev->pcpu_refcnt);
    1d50:	e5933310 	ldr	r3, [r3, #784]	@ 0x310
    1d54:	ee1d1f90 	mrc	15, 0, r1, cr13, cr0, {4}
    1d58:	e7932001 	ldr	r2, [r3, r1]
    1d5c:	e2422001 	sub	r2, r2, #1
    1d60:	e7832001 	str	r2, [r3, r1]
	asm volatile(
    1d64:	e121f000 	msr	CPSR_c, r0
	dev_put(c->reply_dev);
    1d68:	e5943030 	ldr	r3, [r4, #48]	@ 0x30
	if (dev) {
    1d6c:	e3530000 	cmp	r3, #0
    1d70:	0a000007 	beq	1d94 <sfe_ipv4_flush_sfe_ipv4_connection.constprop.0+0xc0>
	asm volatile(
    1d74:	e10f0000 	mrs	r0, CPSR
    1d78:	f10c0080 	cpsid	i
		this_cpu_dec(*dev->pcpu_refcnt);
    1d7c:	e5933310 	ldr	r3, [r3, #784]	@ 0x310
    1d80:	ee1d1f90 	mrc	15, 0, r1, cr13, cr0, {4}
    1d84:	e7932001 	ldr	r2, [r3, r1]
    1d88:	e2422001 	sub	r2, r2, #1
    1d8c:	e7832001 	str	r2, [r3, r1]
	asm volatile(
    1d90:	e121f000 	msr	CPSR_c, r0
	kfree(c->original_match);
    1d94:	e5940024 	ldr	r0, [r4, #36]	@ 0x24
    1d98:	ebfffffe 	bl	0 <kfree>
	kfree(c->reply_match);
    1d9c:	e594002c 	ldr	r0, [r4, #44]	@ 0x2c
    1da0:	ebfffffe 	bl	0 <kfree>
	kfree(c);
    1da4:	e1a00004 	mov	r0, r4
    1da8:	ebfffffe 	bl	0 <kfree>
}
    1dac:	e24bd014 	sub	sp, fp, #20
    1db0:	e89da830 	ldm	sp, {r4, r5, fp, sp, pc}

00001db4 <sfe_ipv6_debug_dev_release>:

/*
 * sfe_ipv6_debug_dev_release()
 */
static int sfe_ipv6_debug_dev_release(struct inode *inode, struct file *file)
    1db4:	e1a0c00d 	mov	ip, sp
    1db8:	e92dd800 	push	{fp, ip, lr, pc}
    1dbc:	e24cb004 	sub	fp, ip, #4
    1dc0:	e5910090 	ldr	r0, [r1, #144]	@ 0x90
    1dc4:	e3500000 	cmp	r0, #0
    1dc8:	0a000000 	beq	1dd0 <sfe_ipv6_debug_dev_release+0x1c>
    1dcc:	ebfffffe 	bl	0 <kfree>
    1dd0:	e3a00000 	mov	r0, #0
    1dd4:	e24bd00c 	sub	sp, fp, #12
    1dd8:	e89da800 	ldm	sp, {fp, sp, pc}

00001ddc <fast_classifier_sync_rule>:
{
    1ddc:	e1a0c00d 	mov	ip, sp
    1de0:	e92dd9f0 	push	{r4, r5, r6, r7, r8, fp, ip, lr, pc}
    1de4:	e24cb004 	sub	fp, ip, #4
    1de8:	e24dd0f4 	sub	sp, sp, #244	@ 0xf4
	if (sis->is_v6) {
    1dec:	e590c008 	ldr	ip, [r0, #8]
{
    1df0:	e1a05000 	mov	r5, r0
	memset(&tuple, 0, sizeof(tuple));
    1df4:	e3a02000 	mov	r2, #0
	tuple.src.u.all = (__be16)sis->src_port;
    1df8:	e1d013b0 	ldrh	r1, [r0, #48]	@ 0x30
	memset(&tuple, 0, sizeof(tuple));
    1dfc:	e3a03000 	mov	r3, #0
	tuple.dst.protonum = (u8)sis->protocol;
    1e00:	e590000c 	ldr	r0, [r0, #12]
	if (sis->is_v6) {
    1e04:	e35c0000 	cmp	ip, #0
	tuple.src.u.all = (__be16)sis->src_port;
    1e08:	e24bcf41 	sub	ip, fp, #260	@ 0x104
    1e0c:	e1cc10b0 	strh	r1, [ip]
	memset(&tuple, 0, sizeof(tuple));
    1e10:	e24bcf45 	sub	ip, fp, #276	@ 0x114
	tuple.dst.u.all = (__be16)sis->dest_port;
    1e14:	e1d515b4 	ldrh	r1, [r5, #84]	@ 0x54
	memset(&tuple, 0, sizeof(tuple));
    1e18:	e1cc20f0 	strd	r2, [ip]
    1e1c:	e24bcf43 	sub	ip, fp, #268	@ 0x10c
    1e20:	e1cc20f0 	strd	r2, [ip]
    1e24:	e14b2ffc 	strd	r2, [fp, #-252]	@ 0xffffff04
    1e28:	e14b2ff4 	strd	r2, [fp, #-244]	@ 0xffffff0c
	tuple.dst.u.all = (__be16)sis->dest_port;
    1e2c:	e14b1fb0 	strh	r1, [fp, #-240]	@ 0xffffff10
	tuple.dst.protonum = (u8)sis->protocol;
    1e30:	e54b00ee 	strb	r0, [fp, #-238]	@ 0xffffff12
	if (sis->is_v6) {
    1e34:	0a0000ac 	beq	20ec <fast_classifier_sync_rule+0x310>
		tuple.src.u3.in6 = *((struct in6_addr *)sis->src_ip.ip6);
    1e38:	e1c501d0 	ldrd	r0, [r5, #16]
    1e3c:	e24bcf45 	sub	ip, fp, #276	@ 0x114
    1e40:	e1c521d8 	ldrd	r2, [r5, #24]
    1e44:	e1cc00f0 	strd	r0, [ip]
    1e48:	e24b1f43 	sub	r1, fp, #268	@ 0x10c
		tuple.dst.u3.in6 = *((struct in6_addr *)sis->dest_ip.ip6);
    1e4c:	e24bcc01 	sub	ip, fp, #256	@ 0x100
		tuple.src.u3.in6 = *((struct in6_addr *)sis->src_ip.ip6);
    1e50:	e1c120f0 	strd	r2, [r1]
		tuple.dst.u3.in6 = *((struct in6_addr *)sis->dest_ip.ip6);
    1e54:	e1c523dc 	ldrd	r2, [r5, #60]	@ 0x3c
    1e58:	e1c503d4 	ldrd	r0, [r5, #52]	@ 0x34
    1e5c:	e14b2ff8 	strd	r2, [fp, #-248]	@ 0xffffff08
		tuple.src.l3num = AF_INET6;
    1e60:	e3a0300a 	mov	r3, #10
		tuple.dst.u3.in6 = *((struct in6_addr *)sis->dest_ip.ip6);
    1e64:	e1cc00f0 	strd	r0, [ip]
    1e68:	e24b2c01 	sub	r2, fp, #256	@ 0x100
	if (skip_to_bridge_ingress) {
    1e6c:	e3004000 	movw	r4, #0
    1e70:	e3404000 	movt	r4, #0
    1e74:	e2422002 	sub	r2, r2, #2
    1e78:	e1c230b0 	strh	r3, [r2]
    1e7c:	e5d43010 	ldrb	r3, [r4, #16]
    1e80:	e3530000 	cmp	r3, #0
    1e84:	0a00001f 	beq	1f08 <fast_classifier_sync_rule+0x12c>
		if (sis->src_dev && sis->src_dev->priv_flags & IFF_EBRIDGE &&
    1e88:	e5951000 	ldr	r1, [r5]
		nlstats.tx_packets = 0;
    1e8c:	e3a02000 	mov	r2, #0
    1e90:	e3a03000 	mov	r3, #0
    1e94:	e14b2ef4 	strd	r2, [fp, #-228]	@ 0xffffff1c
		nlstats.tx_bytes = 0;
    1e98:	e14b2df4 	strd	r2, [fp, #-212]	@ 0xffffff2c
		if (sis->src_dev && sis->src_dev->priv_flags & IFF_EBRIDGE &&
    1e9c:	e3510000 	cmp	r1, #0
    1ea0:	0a000011 	beq	1eec <fast_classifier_sync_rule+0x110>
    1ea4:	e5913070 	ldr	r3, [r1, #112]	@ 0x70
    1ea8:	e3130002 	tst	r3, #2
    1eac:	0a00000e 	beq	1eec <fast_classifier_sync_rule+0x110>
		    (sis->src_new_packet_count || sis->src_new_byte_count)) {
    1eb0:	e5951078 	ldr	r1, [r5, #120]	@ 0x78
    1eb4:	e595307c 	ldr	r3, [r5, #124]	@ 0x7c
    1eb8:	e1910003 	orrs	r0, r1, r3
    1ebc:	0a00000a 	beq	1eec <fast_classifier_sync_rule+0x110>
	raw_spin_lock_bh(&lock->rlock);
    1ec0:	e2840014 	add	r0, r4, #20
			nlstats.rx_packets = sis->src_new_packet_count;
    1ec4:	e50b10ec 	str	r1, [fp, #-236]	@ 0xffffff14
    1ec8:	e50b20e8 	str	r2, [fp, #-232]	@ 0xffffff18
			nlstats.rx_bytes = sis->src_new_byte_count;
    1ecc:	e50b30dc 	str	r3, [fp, #-220]	@ 0xffffff24
    1ed0:	e50b20d8 	str	r2, [fp, #-216]	@ 0xffffff28
    1ed4:	ebfffffe 	bl	0 <_raw_spin_lock_bh>
			br_dev_update_stats(sis->src_dev, &nlstats);
    1ed8:	e5950000 	ldr	r0, [r5]
    1edc:	e24b10ec 	sub	r1, fp, #236	@ 0xec
    1ee0:	ebfffffe 	bl	0 <br_dev_update_stats>
	raw_spin_unlock_bh(&lock->rlock);
    1ee4:	e2840014 	add	r0, r4, #20
    1ee8:	ebfffffe 	bl	0 <_raw_spin_unlock_bh>
		if (sis->dest_dev && sis->dest_dev->priv_flags & IFF_EBRIDGE &&
    1eec:	e5953004 	ldr	r3, [r5, #4]
    1ef0:	e3530000 	cmp	r3, #0
    1ef4:	0a000003 	beq	1f08 <fast_classifier_sync_rule+0x12c>
    1ef8:	e5933070 	ldr	r3, [r3, #112]	@ 0x70
    1efc:	e3a02000 	mov	r2, #0
    1f00:	e3130002 	tst	r3, #2
    1f04:	1a0000ac 	bne	21bc <fast_classifier_sync_rule+0x3e0>
	h = nf_conntrack_find_get(&init_net, SFE_NF_CT_DEFAULT_ZONE, &tuple);
    1f08:	e3001000 	movw	r1, #0
    1f0c:	e3000000 	movw	r0, #0
    1f10:	e24b2f45 	sub	r2, fp, #276	@ 0x114
    1f14:	e3401000 	movt	r1, #0
    1f18:	e3400000 	movt	r0, #0
    1f1c:	ebfffffe 	bl	0 <nf_conntrack_find_get>
	if (unlikely(!h)) {
    1f20:	e3500000 	cmp	r0, #0
    1f24:	0a000050 	beq	206c <fast_classifier_sync_rule+0x290>
}

static inline struct nf_conn *
nf_ct_tuplehash_to_ctrack(const struct nf_conntrack_tuple_hash *hash)
{
	return container_of(hash, struct nf_conn,
    1f28:	e5d0302f 	ldrb	r3, [r0, #47]	@ 0x2f
    1f2c:	e3e0200b 	mvn	r2, #11
    1f30:	e0833083 	add	r3, r3, r3, lsl #1
    1f34:	e0423203 	sub	r3, r2, r3, lsl #4
    1f38:	e0804003 	add	r4, r0, r3
	/*
	 * Unlike the bitops with the '__' prefix above, this one *is* atomic,
	 * so `volatile` must always stay here with no cast-aways. See
	 * `Documentation/atomic_bitops.txt` for the details.
	 */
	return 1UL & (addr[BIT_WORD(nr)] >> (nr & (BITS_PER_LONG-1)));
    1f3c:	e594306c 	ldr	r3, [r4, #108]	@ 0x6c
	if (!test_bit(IPS_FIXED_TIMEOUT_BIT, &ct->status)) {
    1f40:	e3130b01 	tst	r3, #1024	@ 0x400
    1f44:	0a000092 	beq	2194 <fast_classifier_sync_rule+0x3b8>
};

static inline
struct nf_conn_acct *nf_conn_acct_find(const struct nf_conn *ct)
{
	return nf_ct_ext_find(ct, NF_CT_EXT_ACCT);
    1f48:	e5946080 	ldr	r6, [r4, #128]	@ 0x80

static inline void *nf_ct_ext_find(const struct nf_conn *ct, u8 id)
{
	struct nf_ct_ext *ext = ct->ext;

	if (!ext || !__nf_ct_ext_exist(ext, id))
    1f4c:	e3560000 	cmp	r6, #0
    1f50:	0a000033 	beq	2024 <fast_classifier_sync_rule+0x248>
	return !!ext->offset[id];
    1f54:	e5d63003 	ldrb	r3, [r6, #3]
	if (!ext || !__nf_ct_ext_exist(ext, id))
    1f58:	e3530000 	cmp	r3, #0
		return NULL;
    1f5c:	01a06003 	moveq	r6, r3
	if (!ext || !__nf_ct_ext_exist(ext, id))
    1f60:	0a00002f 	beq	2024 <fast_classifier_sync_rule+0x248>

	if (unlikely(ext->gen_id))
    1f64:	e5962008 	ldr	r2, [r6, #8]
    1f68:	e3520000 	cmp	r2, #0
		return __nf_ct_ext_find(ext, id);

	return (void *)ct->ext + ct->ext->offset[id];
    1f6c:	00866003 	addeq	r6, r6, r3
	if (unlikely(ext->gen_id))
    1f70:	1a0000aa 	bne	2220 <fast_classifier_sync_rule+0x444>
	if (acct) {
    1f74:	e3560000 	cmp	r6, #0
    1f78:	0a000029 	beq	2024 <fast_classifier_sync_rule+0x248>
	raw_spin_lock_bh(&lock->rlock);
    1f7c:	e2847004 	add	r7, r4, #4
    1f80:	e1a00007 	mov	r0, r7
    1f84:	ebfffffe 	bl	0 <_raw_spin_lock_bh>
    1f88:	f596f000 	pldw	[r6]
		atomic64_add(sis->src_new_packet_count, &SFE_ACCT_COUNTER(acct)[IP_CT_DIR_ORIGINAL].packets);
    1f8c:	e3a0c000 	mov	ip, #0
    1f90:	e5952078 	ldr	r2, [r5, #120]	@ 0x78
    1f94:	e1a0300c 	mov	r3, ip
#define ATOMIC64_OPS(op, op1, op2)					\
	ATOMIC64_OP(op, op1, op2)					\
	ATOMIC64_OP_RETURN(op, op1, op2)				\
	ATOMIC64_FETCH_OP(op, op1, op2)

ATOMIC64_OPS(add, adds, adc)
    1f98:	e1b60f9f 	ldrexd	r0, [r6]
    1f9c:	e0900002 	adds	r0, r0, r2
    1fa0:	e0a11003 	adc	r1, r1, r3
    1fa4:	e1a6ef90 	strexd	lr, r0, [r6]
    1fa8:	e33e0000 	teq	lr, #0
    1fac:	1afffff9 	bne	1f98 <fast_classifier_sync_rule+0x1bc>
		atomic64_add(sis->src_new_byte_count, &SFE_ACCT_COUNTER(acct)[IP_CT_DIR_ORIGINAL].bytes);
    1fb0:	e286e008 	add	lr, r6, #8
    1fb4:	f59ef000 	pldw	[lr]
    1fb8:	e595207c 	ldr	r2, [r5, #124]	@ 0x7c
    1fbc:	e1be0f9f 	ldrexd	r0, [lr]
    1fc0:	e0900002 	adds	r0, r0, r2
    1fc4:	e0a11003 	adc	r1, r1, r3
    1fc8:	e1ae8f90 	strexd	r8, r0, [lr]
    1fcc:	e3380000 	teq	r8, #0
    1fd0:	1afffff9 	bne	1fbc <fast_classifier_sync_rule+0x1e0>
		atomic64_add(sis->dest_new_packet_count, &SFE_ACCT_COUNTER(acct)[IP_CT_DIR_REPLY].packets);
    1fd4:	e286e010 	add	lr, r6, #16
    1fd8:	f59ef000 	pldw	[lr]
    1fdc:	e59520a0 	ldr	r2, [r5, #160]	@ 0xa0
    1fe0:	e1be0f9f 	ldrexd	r0, [lr]
    1fe4:	e0900002 	adds	r0, r0, r2
    1fe8:	e0a11003 	adc	r1, r1, r3
    1fec:	e1ae8f90 	strexd	r8, r0, [lr]
    1ff0:	e3380000 	teq	r8, #0
    1ff4:	1afffff9 	bne	1fe0 <fast_classifier_sync_rule+0x204>
		atomic64_add(sis->dest_new_byte_count, &SFE_ACCT_COUNTER(acct)[IP_CT_DIR_REPLY].bytes);
    1ff8:	e286e018 	add	lr, r6, #24
    1ffc:	f59ef000 	pldw	[lr]
    2000:	e59520a4 	ldr	r2, [r5, #164]	@ 0xa4
    2004:	e1be0f9f 	ldrexd	r0, [lr]
    2008:	e0900002 	adds	r0, r0, r2
    200c:	e0a11003 	adc	r1, r1, r3
    2010:	e1aecf90 	strexd	ip, r0, [lr]
    2014:	e33c0000 	teq	ip, #0
    2018:	1afffff9 	bne	2004 <fast_classifier_sync_rule+0x228>
	raw_spin_unlock_bh(&lock->rlock);
    201c:	e1a00007 	mov	r0, r7
    2020:	ebfffffe 	bl	0 <_raw_spin_unlock_bh>
	switch (sis->protocol) {
    2024:	e595300c 	ldr	r3, [r5, #12]
    2028:	e3530006 	cmp	r3, #6
    202c:	0a000034 	beq	2104 <fast_classifier_sync_rule+0x328>
    2030:	e3530011 	cmp	r3, #17
    2034:	0a00000e 	beq	2074 <fast_classifier_sync_rule+0x298>
void nf_conntrack_tcp_set_closing(struct nf_conn *ct);

/* decrement reference count on a conntrack */
static inline void nf_ct_put(struct nf_conn *ct)
{
	if (ct && refcount_dec_and_test(&ct->ct_general.use))
    2038:	e3540000 	cmp	r4, #0
    203c:	0a00000a 	beq	206c <fast_classifier_sync_rule+0x290>

#ifndef arch_atomic_fetch_sub_release
static __always_inline int
arch_atomic_fetch_sub_release(int i, atomic_t *v)
{
	__atomic_release_fence();
    2040:	f57ff05b 	dmb	ish
    2044:	f594f000 	pldw	[r4]
ATOMIC_OPS(sub, -=, sub)
    2048:	e1943f9f 	ldrex	r3, [r4]
    204c:	e2432001 	sub	r2, r3, #1
    2050:	e1841f92 	strex	r1, r2, [r4]
    2054:	e3310000 	teq	r1, #0
    2058:	1afffffa 	bne	2048 <fast_classifier_sync_rule+0x26c>
	int old = atomic_fetch_sub_release(i, &r->refs);

	if (oldp)
		*oldp = old;

	if (old == i) {
    205c:	e3530001 	cmp	r3, #1
    2060:	0a000069 	beq	220c <fast_classifier_sync_rule+0x430>
		smp_acquire__after_ctrl_dep();
		return true;
	}

	if (unlikely(old < 0 || old - i < 0))
    2064:	e3530000 	cmp	r3, #0
    2068:	da000063 	ble	21fc <fast_classifier_sync_rule+0x420>
}
    206c:	e24bd020 	sub	sp, fp, #32
    2070:	e89da9f0 	ldm	sp, {r4, r5, r6, r7, r8, fp, sp, pc}
    2074:	e594306c 	ldr	r3, [r4, #108]	@ 0x6c
		if (!test_bit(IPS_ASSURED_BIT, &ct->status) && acct) {
    2078:	e3130004 	tst	r3, #4
    207c:	1a000005 	bne	2098 <fast_classifier_sync_rule+0x2bc>
    2080:	e3560000 	cmp	r6, #0
    2084:	0a000003 	beq	2098 <fast_classifier_sync_rule+0x2bc>
			if (atomic64_read(&SFE_ACCT_COUNTER(acct)[IP_CT_DIR_REPLY].packets)) {
    2088:	e2866010 	add	r6, r6, #16
	__asm__ __volatile__("@ atomic64_read\n"
    208c:	e1b62f9f 	ldrexd	r2, [r6]
    2090:	e1932002 	orrs	r2, r3, r2
    2094:	1a000066 	bne	2234 <fast_classifier_sync_rule+0x458>
			timeouts = udp_get_timeouts(nf_ct_net(ct));
    2098:	e3000000 	movw	r0, #0
	raw_spin_lock_bh(&lock->rlock);
    209c:	e2846004 	add	r6, r4, #4
    20a0:	e3400000 	movt	r0, #0
    20a4:	ebfffffe 	bl	0 <udp_get_timeouts>
    20a8:	e1a05000 	mov	r5, r0
    20ac:	e1a00006 	mov	r0, r6
    20b0:	ebfffffe 	bl	0 <_raw_spin_lock_bh>
    20b4:	e594306c 	ldr	r3, [r4, #108]	@ 0x6c
	raw_spin_unlock_bh(&lock->rlock);
    20b8:	e1a00006 	mov	r0, r6
		if (test_bit(IPS_SEEN_REPLY_BIT, &ct->status)) {
    20bc:	e3130002 	tst	r3, #2
			ct->timeout = nfct_time_stamp + timeouts[UDP_CT_REPLIED];
    20c0:	e3003000 	movw	r3, #0
    20c4:	e3403000 	movt	r3, #0
    20c8:	15952004 	ldrne	r2, [r5, #4]
    20cc:	e5933000 	ldr	r3, [r3]
			ct->timeout = nfct_time_stamp + timeouts[UDP_CT_UNREPLIED];
    20d0:	05952000 	ldreq	r2, [r5]
    20d4:	e0833002 	add	r3, r3, r2
    20d8:	e5843008 	str	r3, [r4, #8]
    20dc:	ebfffffe 	bl	0 <_raw_spin_unlock_bh>
    20e0:	e3540000 	cmp	r4, #0
    20e4:	1affffd5 	bne	2040 <fast_classifier_sync_rule+0x264>
    20e8:	eaffffdf 	b	206c <fast_classifier_sync_rule+0x290>
		tuple.src.u3.ip = sis->src_ip.ip;
    20ec:	e5951010 	ldr	r1, [r5, #16]
		tuple.src.l3num = AF_INET;
    20f0:	e3a03002 	mov	r3, #2
		tuple.dst.u3.ip = sis->dest_ip.ip;
    20f4:	e5952034 	ldr	r2, [r5, #52]	@ 0x34
		tuple.src.u3.ip = sis->src_ip.ip;
    20f8:	e50b1114 	str	r1, [fp, #-276]	@ 0xfffffeec
		tuple.dst.u3.ip = sis->dest_ip.ip;
    20fc:	e50b2100 	str	r2, [fp, #-256]	@ 0xffffff00
		tuple.src.l3num = AF_INET;
    2100:	eaffff58 	b	1e68 <fast_classifier_sync_rule+0x8c>
	raw_spin_lock_bh(&lock->rlock);
    2104:	e2846004 	add	r6, r4, #4
    2108:	e1a00006 	mov	r0, r6
    210c:	ebfffffe 	bl	0 <_raw_spin_lock_bh>
		if (ct->proto.tcp.seen[0].td_maxwin < sis->src_td_max_window) {
    2110:	e5953058 	ldr	r3, [r5, #88]	@ 0x58
	raw_spin_unlock_bh(&lock->rlock);
    2114:	e1a00006 	mov	r0, r6
    2118:	e5942098 	ldr	r2, [r4, #152]	@ 0x98
    211c:	e1520003 	cmp	r2, r3
			ct->proto.tcp.seen[0].td_maxwin = sis->src_td_max_window;
    2120:	35843098 	strcc	r3, [r4, #152]	@ 0x98
		if ((s32)(ct->proto.tcp.seen[0].td_end - sis->src_td_end) < 0) {
    2124:	e595205c 	ldr	r2, [r5, #92]	@ 0x5c
    2128:	e5943090 	ldr	r3, [r4, #144]	@ 0x90
    212c:	e0433002 	sub	r3, r3, r2
    2130:	e3530000 	cmp	r3, #0
		if ((s32)(ct->proto.tcp.seen[0].td_maxend - sis->src_td_max_end) < 0) {
    2134:	e5943094 	ldr	r3, [r4, #148]	@ 0x94
			ct->proto.tcp.seen[0].td_end = sis->src_td_end;
    2138:	b5842090 	strlt	r2, [r4, #144]	@ 0x90
		if ((s32)(ct->proto.tcp.seen[0].td_maxend - sis->src_td_max_end) < 0) {
    213c:	e5952060 	ldr	r2, [r5, #96]	@ 0x60
    2140:	e0433002 	sub	r3, r3, r2
    2144:	e3530000 	cmp	r3, #0
			ct->proto.tcp.seen[0].td_maxend = sis->src_td_max_end;
    2148:	b5842094 	strlt	r2, [r4, #148]	@ 0x94
		if (ct->proto.tcp.seen[1].td_maxwin < sis->dest_td_max_window) {
    214c:	e5953080 	ldr	r3, [r5, #128]	@ 0x80
    2150:	e59420ac 	ldr	r2, [r4, #172]	@ 0xac
    2154:	e1520003 	cmp	r2, r3
			ct->proto.tcp.seen[1].td_maxwin = sis->dest_td_max_window;
    2158:	358430ac 	strcc	r3, [r4, #172]	@ 0xac
		if ((s32)(ct->proto.tcp.seen[1].td_end - sis->dest_td_end) < 0) {
    215c:	e5952084 	ldr	r2, [r5, #132]	@ 0x84
    2160:	e59430a4 	ldr	r3, [r4, #164]	@ 0xa4
    2164:	e0433002 	sub	r3, r3, r2
    2168:	e3530000 	cmp	r3, #0
		if ((s32)(ct->proto.tcp.seen[1].td_maxend - sis->dest_td_max_end) < 0) {
    216c:	e59430a8 	ldr	r3, [r4, #168]	@ 0xa8
			ct->proto.tcp.seen[1].td_end = sis->dest_td_end;
    2170:	b58420a4 	strlt	r2, [r4, #164]	@ 0xa4
		if ((s32)(ct->proto.tcp.seen[1].td_maxend - sis->dest_td_max_end) < 0) {
    2174:	e5952088 	ldr	r2, [r5, #136]	@ 0x88
    2178:	e0433002 	sub	r3, r3, r2
    217c:	e3530000 	cmp	r3, #0
			ct->proto.tcp.seen[1].td_maxend = sis->dest_td_max_end;
    2180:	b58420a8 	strlt	r2, [r4, #168]	@ 0xa8
    2184:	ebfffffe 	bl	0 <_raw_spin_unlock_bh>
    2188:	e3540000 	cmp	r4, #0
    218c:	1affffab 	bne	2040 <fast_classifier_sync_rule+0x264>
    2190:	eaffffb5 	b	206c <fast_classifier_sync_rule+0x290>
	raw_spin_lock_bh(&lock->rlock);
    2194:	e2846004 	add	r6, r4, #4
    2198:	e1a00006 	mov	r0, r6
    219c:	ebfffffe 	bl	0 <_raw_spin_lock_bh>
		ct->timeout += sis->delta_jiffies;
    21a0:	e5943008 	ldr	r3, [r4, #8]
	raw_spin_unlock_bh(&lock->rlock);
    21a4:	e1a00006 	mov	r0, r6
    21a8:	e59520b0 	ldr	r2, [r5, #176]	@ 0xb0
    21ac:	e0833002 	add	r3, r3, r2
    21b0:	e5843008 	str	r3, [r4, #8]
    21b4:	ebfffffe 	bl	0 <_raw_spin_unlock_bh>
}
    21b8:	eaffff62 	b	1f48 <fast_classifier_sync_rule+0x16c>
		    (sis->dest_new_packet_count || sis->dest_new_byte_count)) {
    21bc:	e59510a0 	ldr	r1, [r5, #160]	@ 0xa0
    21c0:	e59530a4 	ldr	r3, [r5, #164]	@ 0xa4
    21c4:	e1910003 	orrs	r0, r1, r3
    21c8:	0affff4e 	beq	1f08 <fast_classifier_sync_rule+0x12c>
	raw_spin_lock_bh(&lock->rlock);
    21cc:	e59f0080 	ldr	r0, [pc, #128]	@ 2254 <fast_classifier_sync_rule+0x478>
			nlstats.rx_packets = sis->dest_new_packet_count;
    21d0:	e50b10ec 	str	r1, [fp, #-236]	@ 0xffffff14
    21d4:	e50b20e8 	str	r2, [fp, #-232]	@ 0xffffff18
			nlstats.rx_bytes = sis->dest_new_byte_count;
    21d8:	e50b30dc 	str	r3, [fp, #-220]	@ 0xffffff24
    21dc:	e50b20d8 	str	r2, [fp, #-216]	@ 0xffffff28
    21e0:	ebfffffe 	bl	0 <_raw_spin_lock_bh>
			br_dev_update_stats(sis->dest_dev, &nlstats);
    21e4:	e5950004 	ldr	r0, [r5, #4]
    21e8:	e24b10ec 	sub	r1, fp, #236	@ 0xec
    21ec:	ebfffffe 	bl	0 <br_dev_update_stats>
	raw_spin_unlock_bh(&lock->rlock);
    21f0:	e59f005c 	ldr	r0, [pc, #92]	@ 2254 <fast_classifier_sync_rule+0x478>
    21f4:	ebfffffe 	bl	0 <_raw_spin_unlock_bh>
}
    21f8:	eaffff42 	b	1f08 <fast_classifier_sync_rule+0x12c>
		refcount_warn_saturate(r, REFCOUNT_SUB_UAF);
    21fc:	e3a01003 	mov	r1, #3
    2200:	e1a00004 	mov	r0, r4
    2204:	ebfffffe 	bl	0 <refcount_warn_saturate>
    2208:	eaffff97 	b	206c <fast_classifier_sync_rule+0x290>
		smp_acquire__after_ctrl_dep();
    220c:	f57ff05b 	dmb	ish
		nf_ct_destroy(&ct->ct_general);
    2210:	e1a00004 	mov	r0, r4
    2214:	ebfffffe 	bl	0 <nf_ct_destroy>
}
    2218:	e24bd020 	sub	sp, fp, #32
    221c:	e89da9f0 	ldm	sp, {r4, r5, r6, r7, r8, fp, sp, pc}
		return __nf_ct_ext_find(ext, id);
    2220:	e1a00006 	mov	r0, r6
    2224:	e3a01003 	mov	r1, #3
    2228:	ebfffffe 	bl	0 <__nf_ct_ext_find>
    222c:	e1a06000 	mov	r6, r0
    2230:	eaffff4f 	b	1f74 <fast_classifier_sync_rule+0x198>
	if (!test_bit(IPS_FIXED_TIMEOUT_BIT, &ct->status)) {
    2234:	e284506c 	add	r5, r4, #108	@ 0x6c
				set_bit(IPS_SEEN_REPLY_BIT, &ct->status);
    2238:	e3a00001 	mov	r0, #1
    223c:	e1a01005 	mov	r1, r5
    2240:	ebfffffe 	bl	0 <_set_bit>
				set_bit(IPS_ASSURED_BIT, &ct->status);
    2244:	e1a01005 	mov	r1, r5
    2248:	e3a00002 	mov	r0, #2
    224c:	ebfffffe 	bl	0 <_set_bit>
static inline struct net *read_pnet(const possible_net_t *pnet)
{
#ifdef CONFIG_NET_NS
	return pnet->net;
#else
	return &init_net;
    2250:	eaffff90 	b	2098 <fast_classifier_sync_rule+0x2bc>
    2254:	00000014 	.word	0x00000014

00002258 <sfe_ipv4_remove_sfe_ipv4_connection.constprop.0>:
static void sfe_ipv4_remove_sfe_ipv4_connection(struct sfe_ipv4 *si, struct sfe_ipv4_connection *c)
    2258:	e1a0c00d 	mov	ip, sp
    225c:	e92dd830 	push	{r4, r5, fp, ip, lr, pc}
    2260:	e24cb004 	sub	fp, ip, #4
	sfe_ipv4_remove_sfe_ipv4_connection_match(si, c->reply_match);
    2264:	e590302c 	ldr	r3, [r0, #44]	@ 0x2c
		cm->prev->next = cm->next;
    2268:	e593e000 	ldr	lr, [r3]
	if (cm->prev) {
    226c:	e5931004 	ldr	r1, [r3, #4]
    2270:	e3510000 	cmp	r1, #0
    2274:	0a00003f 	beq	2378 <sfe_ipv4_remove_sfe_ipv4_connection.constprop.0+0x120>
		cm->prev->next = cm->next;
    2278:	e3002000 	movw	r2, #0
    227c:	e581e000 	str	lr, [r1]
    2280:	e3402000 	movt	r2, #0
	if (cm->next) {
    2284:	e5931000 	ldr	r1, [r3]
    2288:	e3510000 	cmp	r1, #0
		cm->next->prev = cm->prev;
    228c:	1593c004 	ldrne	ip, [r3, #4]
    2290:	1581c004 	strne	ip, [r1, #4]
	if (cm->active) {
    2294:	e5d31018 	ldrb	r1, [r3, #24]
    2298:	e3510000 	cmp	r1, #0
    229c:	0a000008 	beq	22c4 <sfe_ipv4_remove_sfe_ipv4_connection.constprop.0+0x6c>
			cm->active_prev->active_next = cm->active_next;
    22a0:	e593c010 	ldr	ip, [r3, #16]
		if (likely(cm->active_prev)) {
    22a4:	e5931014 	ldr	r1, [r3, #20]
    22a8:	e3510000 	cmp	r1, #0
			cm->active_prev->active_next = cm->active_next;
    22ac:	1581c010 	strne	ip, [r1, #16]
			cm->active_next->active_prev = cm->active_prev;
    22b0:	15931014 	ldrne	r1, [r3, #20]
			si->active_head = cm->active_next;
    22b4:	0582c004 	streq	ip, [r2, #4]
		if (likely(cm->active_next)) {
    22b8:	e35c0000 	cmp	ip, #0
			si->active_tail = cm->active_prev;
    22bc:	05821008 	streq	r1, [r2, #8]
			cm->active_next->active_prev = cm->active_prev;
    22c0:	158c1014 	strne	r1, [ip, #20]
	sfe_ipv4_remove_sfe_ipv4_connection_match(si, c->original_match);
    22c4:	e5903024 	ldr	r3, [r0, #36]	@ 0x24
		cm->prev->next = cm->next;
    22c8:	e593e000 	ldr	lr, [r3]
	if (cm->prev) {
    22cc:	e5931004 	ldr	r1, [r3, #4]
    22d0:	e3510000 	cmp	r1, #0
		cm->prev->next = cm->next;
    22d4:	1581e000 	strne	lr, [r1]
	if (cm->prev) {
    22d8:	0a00004d 	beq	2414 <sfe_ipv4_remove_sfe_ipv4_connection.constprop.0+0x1bc>
	if (cm->next) {
    22dc:	e5931000 	ldr	r1, [r3]
    22e0:	e3510000 	cmp	r1, #0
		cm->next->prev = cm->prev;
    22e4:	1593c004 	ldrne	ip, [r3, #4]
    22e8:	1581c004 	strne	ip, [r1, #4]
	if (cm->active) {
    22ec:	e5d31018 	ldrb	r1, [r3, #24]
    22f0:	e3510000 	cmp	r1, #0
    22f4:	0a000008 	beq	231c <sfe_ipv4_remove_sfe_ipv4_connection.constprop.0+0xc4>
			cm->active_prev->active_next = cm->active_next;
    22f8:	e593c010 	ldr	ip, [r3, #16]
		if (likely(cm->active_prev)) {
    22fc:	e5931014 	ldr	r1, [r3, #20]
    2300:	e3510000 	cmp	r1, #0
			cm->active_prev->active_next = cm->active_next;
    2304:	1581c010 	strne	ip, [r1, #16]
			cm->active_next->active_prev = cm->active_prev;
    2308:	15931014 	ldrne	r1, [r3, #20]
			si->active_head = cm->active_next;
    230c:	0582c004 	streq	ip, [r2, #4]
		if (likely(cm->active_next)) {
    2310:	e35c0000 	cmp	ip, #0
			si->active_tail = cm->active_prev;
    2314:	05821008 	streq	r1, [r2, #8]
			cm->active_next->active_prev = cm->active_prev;
    2318:	158c1014 	strne	r1, [ip, #20]
		c->prev->next = c->next;
    231c:	e590c000 	ldr	ip, [r0]
	if (c->prev) {
    2320:	e5903004 	ldr	r3, [r0, #4]
    2324:	e3530000 	cmp	r3, #0
		c->prev->next = c->next;
    2328:	1583c000 	strne	ip, [r3]
	if (c->prev) {
    232c:	0a000027 	beq	23d0 <sfe_ipv4_remove_sfe_ipv4_connection.constprop.0+0x178>
	if (c->next) {
    2330:	e5903000 	ldr	r3, [r0]
    2334:	e3530000 	cmp	r3, #0
		c->next->prev = c->prev;
    2338:	15901004 	ldrne	r1, [r0, #4]
    233c:	15831004 	strne	r1, [r3, #4]
		c->all_connections_prev->all_connections_next = c->all_connections_next;
    2340:	e5901040 	ldr	r1, [r0, #64]	@ 0x40
	if (c->all_connections_prev) {
    2344:	e5903044 	ldr	r3, [r0, #68]	@ 0x44
    2348:	e3530000 	cmp	r3, #0
		c->all_connections_prev->all_connections_next = c->all_connections_next;
    234c:	15831040 	strne	r1, [r3, #64]	@ 0x40
		c->all_connections_next->all_connections_prev = c->all_connections_prev;
    2350:	15903044 	ldrne	r3, [r0, #68]	@ 0x44
		si->all_connections_head = c->all_connections_next;
    2354:	0582100c 	streq	r1, [r2, #12]
	if (c->all_connections_next) {
    2358:	e3510000 	cmp	r1, #0
		si->all_connections_tail = c->all_connections_prev;
    235c:	05823010 	streq	r3, [r2, #16]
		c->all_connections_next->all_connections_prev = c->all_connections_prev;
    2360:	15813044 	strne	r3, [r1, #68]	@ 0x44
	si->num_connections--;
    2364:	e5923014 	ldr	r3, [r2, #20]
    2368:	e2433001 	sub	r3, r3, #1
    236c:	e5823014 	str	r3, [r2, #20]
}
    2370:	e24bd014 	sub	sp, fp, #20
    2374:	e89da830 	ldm	sp, {r4, r5, fp, sp, pc}
	u32 hash = ((u32)dev_addr) ^ ntohl(src_ip ^ dest_ip) ^ protocol ^ ntohs(src_port ^ dest_port);
    2378:	e1d312be 	ldrh	r1, [r3, #46]	@ 0x2e
    237c:	e1d3c2bc 	ldrh	ip, [r3, #44]	@ 0x2c
    2380:	e5932024 	ldr	r2, [r3, #36]	@ 0x24
    2384:	e5d34020 	ldrb	r4, [r3, #32]
    2388:	e02cc001 	eor	ip, ip, r1
    238c:	e5931028 	ldr	r1, [r3, #40]	@ 0x28
    2390:	e6bfcfbc 	rev16	ip, ip
    2394:	e6ffc07c 	uxth	ip, ip
    2398:	e0222001 	eor	r2, r2, r1
    239c:	e593101c 	ldr	r1, [r3, #28]
    23a0:	e6bf2f32 	rev	r2, r2
    23a4:	e0211004 	eor	r1, r1, r4
    23a8:	e0211002 	eor	r1, r1, r2
		si->conn_match_hash[conn_match_idx] = cm->next;
    23ac:	e3002000 	movw	r2, #0
	u32 hash = ((u32)dev_addr) ^ ntohl(src_ip ^ dest_ip) ^ protocol ^ ntohs(src_port ^ dest_port);
    23b0:	e021100c 	eor	r1, r1, ip
		si->conn_match_hash[conn_match_idx] = cm->next;
    23b4:	e3402000 	movt	r2, #0
	return ((hash >> SFE_IPV4_CONNECTION_HASH_SHIFT) ^ hash) & SFE_IPV4_CONNECTION_HASH_MASK;
    23b8:	e0211621 	eor	r1, r1, r1, lsr #12
    23bc:	e7eb1051 	ubfx	r1, r1, #0, #12
		si->conn_match_hash[conn_match_idx] = cm->next;
    23c0:	e2811a01 	add	r1, r1, #4096	@ 0x1000
    23c4:	e281100c 	add	r1, r1, #12
    23c8:	e782e101 	str	lr, [r2, r1, lsl #2]
    23cc:	eaffffac 	b	2284 <sfe_ipv4_remove_sfe_ipv4_connection.constprop.0+0x2c>
	u32 hash = ntohl(src_ip ^ dest_ip) ^ protocol ^ ntohs(src_port ^ dest_port);
    23d0:	e1d032b0 	ldrh	r3, [r0, #32]
    23d4:	e1d011bc 	ldrh	r1, [r0, #28]
    23d8:	e590e00c 	ldr	lr, [r0, #12]
    23dc:	e5904014 	ldr	r4, [r0, #20]
    23e0:	e0211003 	eor	r1, r1, r3
    23e4:	e5d03008 	ldrb	r3, [r0, #8]
    23e8:	e6bf1fb1 	rev16	r1, r1
    23ec:	e02ee004 	eor	lr, lr, r4
    23f0:	e6ff1071 	uxth	r1, r1
    23f4:	e6bfef3e 	rev	lr, lr
    23f8:	e023300e 	eor	r3, r3, lr
    23fc:	e0233001 	eor	r3, r3, r1
	return ((hash >> SFE_IPV4_CONNECTION_HASH_SHIFT) ^ hash) & SFE_IPV4_CONNECTION_HASH_MASK;
    2400:	e0233623 	eor	r3, r3, r3, lsr #12
    2404:	e7eb3053 	ubfx	r3, r3, #0, #12
		si->conn_hash[conn_idx] = c->next;
    2408:	e283300c 	add	r3, r3, #12
    240c:	e782c103 	str	ip, [r2, r3, lsl #2]
    2410:	eaffffc6 	b	2330 <sfe_ipv4_remove_sfe_ipv4_connection.constprop.0+0xd8>
	u32 hash = ((u32)dev_addr) ^ ntohl(src_ip ^ dest_ip) ^ protocol ^ ntohs(src_port ^ dest_port);
    2414:	e5934024 	ldr	r4, [r3, #36]	@ 0x24
    2418:	e5931028 	ldr	r1, [r3, #40]	@ 0x28
    241c:	e1d3c2bc 	ldrh	ip, [r3, #44]	@ 0x2c
    2420:	e5d35020 	ldrb	r5, [r3, #32]
    2424:	e0244001 	eor	r4, r4, r1
    2428:	e1d312be 	ldrh	r1, [r3, #46]	@ 0x2e
    242c:	e6bf4f34 	rev	r4, r4
    2430:	e02cc001 	eor	ip, ip, r1
    2434:	e593101c 	ldr	r1, [r3, #28]
    2438:	e6bfcfbc 	rev16	ip, ip
    243c:	e6ffc07c 	uxth	ip, ip
    2440:	e0211005 	eor	r1, r1, r5
    2444:	e0211004 	eor	r1, r1, r4
    2448:	e021100c 	eor	r1, r1, ip
	return ((hash >> SFE_IPV4_CONNECTION_HASH_SHIFT) ^ hash) & SFE_IPV4_CONNECTION_HASH_MASK;
    244c:	e0211621 	eor	r1, r1, r1, lsr #12
    2450:	e7eb1051 	ubfx	r1, r1, #0, #12
		si->conn_match_hash[conn_match_idx] = cm->next;
    2454:	e2811a01 	add	r1, r1, #4096	@ 0x1000
    2458:	e281100c 	add	r1, r1, #12
    245c:	e782e101 	str	lr, [r2, r1, lsl #2]
    2460:	eaffff9d 	b	22dc <sfe_ipv4_remove_sfe_ipv4_connection.constprop.0+0x84>

00002464 <sfe_ipv6_remove_connection.constprop.0>:
static void sfe_ipv6_remove_connection(struct sfe_ipv6 *si, struct sfe_ipv6_connection *c)
    2464:	e1a0c00d 	mov	ip, sp
    2468:	e92dd810 	push	{r4, fp, ip, lr, pc}
    246c:	e24cb004 	sub	fp, ip, #4
	sfe_ipv6_remove_connection_match(si, c->reply_match);
    2470:	e590305c 	ldr	r3, [r0, #92]	@ 0x5c
		cm->prev->next = cm->next;
    2474:	e593c000 	ldr	ip, [r3]
	if (cm->prev) {
    2478:	e5931004 	ldr	r1, [r3, #4]
    247c:	e3510000 	cmp	r1, #0
    2480:	0a00003e 	beq	2580 <sfe_ipv6_remove_connection.constprop.0+0x11c>
		cm->prev->next = cm->next;
    2484:	e3002000 	movw	r2, #0
    2488:	e581c000 	str	ip, [r1]
    248c:	e3402000 	movt	r2, #0
	if (cm->next) {
    2490:	e5931000 	ldr	r1, [r3]
    2494:	e3510000 	cmp	r1, #0
		cm->next->prev = cm->prev;
    2498:	1593c004 	ldrne	ip, [r3, #4]
    249c:	1581c004 	strne	ip, [r1, #4]
	if (cm->active) {
    24a0:	e5d31018 	ldrb	r1, [r3, #24]
    24a4:	e3510000 	cmp	r1, #0
    24a8:	0a000008 	beq	24d0 <sfe_ipv6_remove_connection.constprop.0+0x6c>
			cm->active_prev->active_next = cm->active_next;
    24ac:	e593c010 	ldr	ip, [r3, #16]
		if (likely(cm->active_prev)) {
    24b0:	e5931014 	ldr	r1, [r3, #20]
    24b4:	e3510000 	cmp	r1, #0
			cm->active_prev->active_next = cm->active_next;
    24b8:	1581c010 	strne	ip, [r1, #16]
			cm->active_next->active_prev = cm->active_prev;
    24bc:	15931014 	ldrne	r1, [r3, #20]
			si->active_head = cm->active_next;
    24c0:	0582c004 	streq	ip, [r2, #4]
		if (likely(cm->active_next)) {
    24c4:	e35c0000 	cmp	ip, #0
			si->active_tail = cm->active_prev;
    24c8:	05821008 	streq	r1, [r2, #8]
			cm->active_next->active_prev = cm->active_prev;
    24cc:	158c1014 	strne	r1, [ip, #20]
	sfe_ipv6_remove_connection_match(si, c->original_match);
    24d0:	e5903054 	ldr	r3, [r0, #84]	@ 0x54
		cm->prev->next = cm->next;
    24d4:	e593e000 	ldr	lr, [r3]
	if (cm->prev) {
    24d8:	e5931004 	ldr	r1, [r3, #4]
    24dc:	e3510000 	cmp	r1, #0
		cm->prev->next = cm->next;
    24e0:	1581e000 	strne	lr, [r1]
	if (cm->prev) {
    24e4:	0a000062 	beq	2674 <sfe_ipv6_remove_connection.constprop.0+0x210>
	if (cm->next) {
    24e8:	e5931000 	ldr	r1, [r3]
    24ec:	e3510000 	cmp	r1, #0
		cm->next->prev = cm->prev;
    24f0:	1593c004 	ldrne	ip, [r3, #4]
    24f4:	1581c004 	strne	ip, [r1, #4]
	if (cm->active) {
    24f8:	e5d31018 	ldrb	r1, [r3, #24]
    24fc:	e3510000 	cmp	r1, #0
    2500:	0a000008 	beq	2528 <sfe_ipv6_remove_connection.constprop.0+0xc4>
			cm->active_prev->active_next = cm->active_next;
    2504:	e593c010 	ldr	ip, [r3, #16]
		if (likely(cm->active_prev)) {
    2508:	e5931014 	ldr	r1, [r3, #20]
    250c:	e3510000 	cmp	r1, #0
			cm->active_prev->active_next = cm->active_next;
    2510:	1581c010 	strne	ip, [r1, #16]
			cm->active_next->active_prev = cm->active_prev;
    2514:	15931014 	ldrne	r1, [r3, #20]
			si->active_head = cm->active_next;
    2518:	0582c004 	streq	ip, [r2, #4]
		if (likely(cm->active_next)) {
    251c:	e35c0000 	cmp	ip, #0
			si->active_tail = cm->active_prev;
    2520:	05821008 	streq	r1, [r2, #8]
			cm->active_next->active_prev = cm->active_prev;
    2524:	158c1014 	strne	r1, [ip, #20]
	if (c->prev) {
    2528:	e890000a 	ldm	r0, {r1, r3}
    252c:	e3530000 	cmp	r3, #0
		c->prev->next = c->next;
    2530:	15831000 	strne	r1, [r3]
	if (c->prev) {
    2534:	0a000032 	beq	2604 <sfe_ipv6_remove_connection.constprop.0+0x1a0>
	if (c->next) {
    2538:	e5903000 	ldr	r3, [r0]
    253c:	e3530000 	cmp	r3, #0
		c->next->prev = c->prev;
    2540:	15901004 	ldrne	r1, [r0, #4]
    2544:	15831004 	strne	r1, [r3, #4]
		c->all_connections_prev->all_connections_next = c->all_connections_next;
    2548:	e5901070 	ldr	r1, [r0, #112]	@ 0x70
	if (c->all_connections_prev) {
    254c:	e5903074 	ldr	r3, [r0, #116]	@ 0x74
    2550:	e3530000 	cmp	r3, #0
		c->all_connections_prev->all_connections_next = c->all_connections_next;
    2554:	15831070 	strne	r1, [r3, #112]	@ 0x70
		c->all_connections_next->all_connections_prev = c->all_connections_prev;
    2558:	15903074 	ldrne	r3, [r0, #116]	@ 0x74
		si->all_connections_head = c->all_connections_next;
    255c:	0582100c 	streq	r1, [r2, #12]
	if (c->all_connections_next) {
    2560:	e3510000 	cmp	r1, #0
		si->all_connections_tail = c->all_connections_prev;
    2564:	05823010 	streq	r3, [r2, #16]
		c->all_connections_next->all_connections_prev = c->all_connections_prev;
    2568:	15813074 	strne	r3, [r1, #116]	@ 0x74
	si->num_connections--;
    256c:	e5923014 	ldr	r3, [r2, #20]
    2570:	e2433001 	sub	r3, r3, #1
    2574:	e5823014 	str	r3, [r2, #20]
}
    2578:	e24bd010 	sub	sp, fp, #16
    257c:	e89da810 	ldm	sp, {r4, fp, sp, pc}
	hash = ((u32)dev_addr) ^ hash ^ protocol ^ ntohs(src_port ^ dest_port);
    2580:	e5934024 	ldr	r4, [r3, #36]	@ 0x24
    2584:	e5931028 	ldr	r1, [r3, #40]	@ 0x28
    2588:	e5932034 	ldr	r2, [r3, #52]	@ 0x34
    258c:	e1d3e4b4 	ldrh	lr, [r3, #68]	@ 0x44
    2590:	e0222004 	eor	r2, r2, r4
    2594:	e1d344b6 	ldrh	r4, [r3, #70]	@ 0x46
    2598:	e0222001 	eor	r2, r2, r1
    259c:	e5931038 	ldr	r1, [r3, #56]	@ 0x38
    25a0:	e02ee004 	eor	lr, lr, r4
    25a4:	e0222001 	eor	r2, r2, r1
    25a8:	e593102c 	ldr	r1, [r3, #44]	@ 0x2c
    25ac:	e6bfefbe 	rev16	lr, lr
    25b0:	e6ffe07e 	uxth	lr, lr
    25b4:	e0222001 	eor	r2, r2, r1
    25b8:	e593103c 	ldr	r1, [r3, #60]	@ 0x3c
    25bc:	e0222001 	eor	r2, r2, r1
    25c0:	e5931030 	ldr	r1, [r3, #48]	@ 0x30
    25c4:	e0222001 	eor	r2, r2, r1
    25c8:	e5931040 	ldr	r1, [r3, #64]	@ 0x40
    25cc:	e0222001 	eor	r2, r2, r1
    25d0:	e593101c 	ldr	r1, [r3, #28]
    25d4:	e0211002 	eor	r1, r1, r2
    25d8:	e5d32020 	ldrb	r2, [r3, #32]
    25dc:	e0211002 	eor	r1, r1, r2
		si->conn_match_hash[conn_match_idx] = cm->next;
    25e0:	e3002000 	movw	r2, #0
	hash = ((u32)dev_addr) ^ hash ^ protocol ^ ntohs(src_port ^ dest_port);
    25e4:	e021100e 	eor	r1, r1, lr
		si->conn_match_hash[conn_match_idx] = cm->next;
    25e8:	e3402000 	movt	r2, #0
	return ((hash >> SFE_IPV6_CONNECTION_HASH_SHIFT) ^ hash) & SFE_IPV6_CONNECTION_HASH_MASK;
    25ec:	e0211621 	eor	r1, r1, r1, lsr #12
    25f0:	e7eb1051 	ubfx	r1, r1, #0, #12
		si->conn_match_hash[conn_match_idx] = cm->next;
    25f4:	e2811a01 	add	r1, r1, #4096	@ 0x1000
    25f8:	e281100c 	add	r1, r1, #12
    25fc:	e782c101 	str	ip, [r2, r1, lsl #2]
    2600:	eaffffa2 	b	2490 <sfe_ipv6_remove_connection.constprop.0+0x2c>
		hash ^= src_ip->addr[idx] ^ dest_ip->addr[idx];
    2604:	e590e00c 	ldr	lr, [r0, #12]
    2608:	e590c010 	ldr	ip, [r0, #16]
    260c:	e590302c 	ldr	r3, [r0, #44]	@ 0x2c
    2610:	e5904034 	ldr	r4, [r0, #52]	@ 0x34
    2614:	e023300e 	eor	r3, r3, lr
    2618:	e590e030 	ldr	lr, [r0, #48]	@ 0x30
    261c:	e023300c 	eor	r3, r3, ip
    2620:	e590c014 	ldr	ip, [r0, #20]
    2624:	e023300e 	eor	r3, r3, lr
    2628:	e590e018 	ldr	lr, [r0, #24]
    262c:	e023300c 	eor	r3, r3, ip
	hash = hash ^ protocol ^ ntohs(src_port ^ dest_port);
    2630:	e1d0c4bc 	ldrh	ip, [r0, #76]	@ 0x4c
		hash ^= src_ip->addr[idx] ^ dest_ip->addr[idx];
    2634:	e0233004 	eor	r3, r3, r4
    2638:	e023300e 	eor	r3, r3, lr
    263c:	e590e038 	ldr	lr, [r0, #56]	@ 0x38
    2640:	e023300e 	eor	r3, r3, lr
	hash = hash ^ protocol ^ ntohs(src_port ^ dest_port);
    2644:	e5d0e008 	ldrb	lr, [r0, #8]
    2648:	e023300e 	eor	r3, r3, lr
    264c:	e1d0e5b0 	ldrh	lr, [r0, #80]	@ 0x50
    2650:	e02cc00e 	eor	ip, ip, lr
    2654:	e6bfcfbc 	rev16	ip, ip
    2658:	e6ffc07c 	uxth	ip, ip
    265c:	e023300c 	eor	r3, r3, ip
	return ((hash >> SFE_IPV6_CONNECTION_HASH_SHIFT) ^ hash) & SFE_IPV6_CONNECTION_HASH_MASK;
    2660:	e0233623 	eor	r3, r3, r3, lsr #12
    2664:	e7eb3053 	ubfx	r3, r3, #0, #12
		si->conn_hash[conn_idx] = c->next;
    2668:	e283300c 	add	r3, r3, #12
    266c:	e7821103 	str	r1, [r2, r3, lsl #2]
    2670:	eaffffb0 	b	2538 <sfe_ipv6_remove_connection.constprop.0+0xd4>
	hash = ((u32)dev_addr) ^ hash ^ protocol ^ ntohs(src_port ^ dest_port);
    2674:	e1d314b6 	ldrh	r1, [r3, #70]	@ 0x46
    2678:	e1d344b4 	ldrh	r4, [r3, #68]	@ 0x44
    267c:	e593c034 	ldr	ip, [r3, #52]	@ 0x34
    2680:	e0244001 	eor	r4, r4, r1
    2684:	e5931024 	ldr	r1, [r3, #36]	@ 0x24
    2688:	e6bf4fb4 	rev16	r4, r4
    268c:	e6ff4074 	uxth	r4, r4
    2690:	e02cc001 	eor	ip, ip, r1
    2694:	e5931028 	ldr	r1, [r3, #40]	@ 0x28
    2698:	e02cc001 	eor	ip, ip, r1
    269c:	e5931038 	ldr	r1, [r3, #56]	@ 0x38
    26a0:	e02cc001 	eor	ip, ip, r1
    26a4:	e593102c 	ldr	r1, [r3, #44]	@ 0x2c
    26a8:	e02cc001 	eor	ip, ip, r1
    26ac:	e593103c 	ldr	r1, [r3, #60]	@ 0x3c
    26b0:	e02cc001 	eor	ip, ip, r1
    26b4:	e5931030 	ldr	r1, [r3, #48]	@ 0x30
    26b8:	e02cc001 	eor	ip, ip, r1
    26bc:	e5931040 	ldr	r1, [r3, #64]	@ 0x40
    26c0:	e02cc001 	eor	ip, ip, r1
    26c4:	e593101c 	ldr	r1, [r3, #28]
    26c8:	e021100c 	eor	r1, r1, ip
    26cc:	e5d3c020 	ldrb	ip, [r3, #32]
    26d0:	e021100c 	eor	r1, r1, ip
    26d4:	e0211004 	eor	r1, r1, r4
	return ((hash >> SFE_IPV6_CONNECTION_HASH_SHIFT) ^ hash) & SFE_IPV6_CONNECTION_HASH_MASK;
    26d8:	e0211621 	eor	r1, r1, r1, lsr #12
    26dc:	e7eb1051 	ubfx	r1, r1, #0, #12
		si->conn_match_hash[conn_match_idx] = cm->next;
    26e0:	e2811a01 	add	r1, r1, #4096	@ 0x1000
    26e4:	e281100c 	add	r1, r1, #12
    26e8:	e782e101 	str	lr, [r2, r1, lsl #2]
    26ec:	eaffff7d 	b	24e8 <sfe_ipv6_remove_connection.constprop.0+0x84>

000026f0 <sfe_ipv6_debug_dev_read_end>:
{
    26f0:	e1a0c00d 	mov	ip, sp
    26f4:	e92ddbf0 	push	{r4, r5, r6, r7, r8, r9, fp, ip, lr, pc}
    26f8:	e24cb004 	sub	fp, ip, #4
	bytes_read = snprintf(msg, CHAR_DEV_MSG_SIZE, "</sfe_ipv6>\n");
    26fc:	e300c000 	movw	ip, #0
{
    2700:	e1a04003 	mov	r4, r3
    2704:	e99b0060 	ldmib	fp, {r5, r6}
	bytes_read = snprintf(msg, CHAR_DEV_MSG_SIZE, "</sfe_ipv6>\n");
    2708:	e340c000 	movt	ip, #0
    270c:	e59c3008 	ldr	r3, [ip, #8]
    2710:	e1cc80d0 	ldrd	r8, [ip]
    2714:	e5823008 	str	r3, [r2, #8]
    2718:	e5dc300c 	ldrb	r3, [ip, #12]
    271c:	e5828000 	str	r8, [r2]
    2720:	e5829004 	str	r9, [r2, #4]
    2724:	e5c2300c 	strb	r3, [r2, #12]
	if (copy_to_user(buffer + *total_read, msg, CHAR_DEV_MSG_SIZE)) {
    2728:	e5953000 	ldr	r3, [r5]
    272c:	e0810003 	add	r0, r1, r3
    2730:	e3a03cfd 	mov	r3, #64768	@ 0xfd00
    2734:	e34b3eff 	movt	r3, #48895	@ 0xbeff
    2738:	e1500003 	cmp	r0, r3
    273c:	9a000002 	bls	274c <sfe_ipv6_debug_dev_read_end+0x5c>
		return false;
    2740:	e3a00000 	mov	r0, #0
}
    2744:	e24bd024 	sub	sp, fp, #36	@ 0x24
    2748:	e89dabf0 	ldm	sp, {r4, r5, r6, r7, r8, r9, fp, sp, pc}
    274c:	ee1d3f70 	mrc	15, 0, r3, cr13, cr0, {3}
	asm(
    2750:	ee137f10 	mrc	15, 0, r7, cr3, cr0, {0}
	set_domain((old_domain & ~domain_mask(DOMAIN_USER)) |
    2754:	e3c7300c 	bic	r3, r7, #12
    2758:	e3833004 	orr	r3, r3, #4
	asm volatile(
    275c:	ee033f10 	mcr	15, 0, r3, cr3, cr0, {0}
	isb();
    2760:	f57ff06f 	isb	sy
	n = arm_copy_to_user(to, from, n);
    2764:	e1a01002 	mov	r1, r2
    2768:	e3a02c03 	mov	r2, #768	@ 0x300
    276c:	ebfffffe 	bl	0 <arm_copy_to_user>
	asm volatile(
    2770:	ee037f10 	mcr	15, 0, r7, cr3, cr0, {0}
	isb();
    2774:	f57ff06f 	isb	sy
	if (copy_to_user(buffer + *total_read, msg, CHAR_DEV_MSG_SIZE)) {
    2778:	e3500000 	cmp	r0, #0
    277c:	1affffef 	bne	2740 <sfe_ipv6_debug_dev_read_end+0x50>
	*length -= bytes_read;
    2780:	e5943000 	ldr	r3, [r4]
	return true;
    2784:	e3a00001 	mov	r0, #1
	*length -= bytes_read;
    2788:	e243300c 	sub	r3, r3, #12
    278c:	e5843000 	str	r3, [r4]
	*total_read += bytes_read;
    2790:	e5953000 	ldr	r3, [r5]
    2794:	e283300c 	add	r3, r3, #12
    2798:	e5853000 	str	r3, [r5]
	ws->state++;
    279c:	e5963000 	ldr	r3, [r6]
    27a0:	e0833000 	add	r3, r3, r0
    27a4:	e5863000 	str	r3, [r6]
}
    27a8:	e24bd024 	sub	sp, fp, #36	@ 0x24
    27ac:	e89dabf0 	ldm	sp, {r4, r5, r6, r7, r8, r9, fp, sp, pc}

000027b0 <sfe_ipv4_debug_dev_read_connections_end>:
{
    27b0:	e1a0c00d 	mov	ip, sp
    27b4:	e92ddbf0 	push	{r4, r5, r6, r7, r8, r9, fp, ip, lr, pc}
    27b8:	e24cb004 	sub	fp, ip, #4
	bytes_read = snprintf(msg, CHAR_DEV_MSG_SIZE, "\t</connections>\n");
    27bc:	e300c000 	movw	ip, #0
{
    27c0:	e99b0060 	ldmib	fp, {r5, r6}
    27c4:	e1a04003 	mov	r4, r3
	bytes_read = snprintf(msg, CHAR_DEV_MSG_SIZE, "\t</connections>\n");
    27c8:	e340c000 	movt	ip, #0
    27cc:	e1cc80d0 	ldrd	r8, [ip]
    27d0:	e5dc3010 	ldrb	r3, [ip, #16]
    27d4:	e5828000 	str	r8, [r2]
    27d8:	e5829004 	str	r9, [r2, #4]
    27dc:	e1cc80d8 	ldrd	r8, [ip, #8]
    27e0:	e5828008 	str	r8, [r2, #8]
    27e4:	e582900c 	str	r9, [r2, #12]
    27e8:	e5c23010 	strb	r3, [r2, #16]
	if (copy_to_user(buffer + *total_read, msg, CHAR_DEV_MSG_SIZE)) {
    27ec:	e5950000 	ldr	r0, [r5]
    27f0:	e3a03cfd 	mov	r3, #64768	@ 0xfd00
    27f4:	e34b3eff 	movt	r3, #48895	@ 0xbeff
    27f8:	e0810000 	add	r0, r1, r0
    27fc:	e1500003 	cmp	r0, r3
    2800:	9a000002 	bls	2810 <sfe_ipv4_debug_dev_read_connections_end+0x60>
		return false;
    2804:	e3a00000 	mov	r0, #0
}
    2808:	e24bd024 	sub	sp, fp, #36	@ 0x24
    280c:	e89dabf0 	ldm	sp, {r4, r5, r6, r7, r8, r9, fp, sp, pc}
    2810:	ee1d3f70 	mrc	15, 0, r3, cr13, cr0, {3}
	asm(
    2814:	ee138f10 	mrc	15, 0, r8, cr3, cr0, {0}
	set_domain((old_domain & ~domain_mask(DOMAIN_USER)) |
    2818:	e3c8300c 	bic	r3, r8, #12
    281c:	e3833004 	orr	r3, r3, #4
	asm volatile(
    2820:	ee033f10 	mcr	15, 0, r3, cr3, cr0, {0}
	isb();
    2824:	f57ff06f 	isb	sy
	n = arm_copy_to_user(to, from, n);
    2828:	e1a01002 	mov	r1, r2
    282c:	e3a02c03 	mov	r2, #768	@ 0x300
    2830:	ebfffffe 	bl	0 <arm_copy_to_user>
	asm volatile(
    2834:	ee038f10 	mcr	15, 0, r8, cr3, cr0, {0}
	isb();
    2838:	f57ff06f 	isb	sy
	if (copy_to_user(buffer + *total_read, msg, CHAR_DEV_MSG_SIZE)) {
    283c:	e3500000 	cmp	r0, #0
    2840:	1affffef 	bne	2804 <sfe_ipv4_debug_dev_read_connections_end+0x54>
	*length -= bytes_read;
    2844:	e5943000 	ldr	r3, [r4]
	return true;
    2848:	e3a00001 	mov	r0, #1
	*length -= bytes_read;
    284c:	e2433010 	sub	r3, r3, #16
    2850:	e5843000 	str	r3, [r4]
	*total_read += bytes_read;
    2854:	e5953000 	ldr	r3, [r5]
    2858:	e2833010 	add	r3, r3, #16
    285c:	e5853000 	str	r3, [r5]
	ws->state++;
    2860:	e5963000 	ldr	r3, [r6]
    2864:	e0833000 	add	r3, r3, r0
    2868:	e5863000 	str	r3, [r6]
}
    286c:	e24bd024 	sub	sp, fp, #36	@ 0x24
    2870:	e89dabf0 	ldm	sp, {r4, r5, r6, r7, r8, r9, fp, sp, pc}

00002874 <sfe_ipv6_debug_dev_read_exceptions_end>:
{
    2874:	e1a0c00d 	mov	ip, sp
    2878:	e92ddbf0 	push	{r4, r5, r6, r7, r8, r9, fp, ip, lr, pc}
    287c:	e24cb004 	sub	fp, ip, #4
	bytes_read = snprintf(msg, CHAR_DEV_MSG_SIZE, "\t</exceptions>\n");
    2880:	e300c000 	movw	ip, #0
{
    2884:	e99b0060 	ldmib	fp, {r5, r6}
    2888:	e1a04003 	mov	r4, r3
	bytes_read = snprintf(msg, CHAR_DEV_MSG_SIZE, "\t</exceptions>\n");
    288c:	e340c000 	movt	ip, #0
    2890:	e3a03cfd 	mov	r3, #64768	@ 0xfd00
    2894:	e1cc80d0 	ldrd	r8, [ip]
    2898:	e34b3eff 	movt	r3, #48895	@ 0xbeff
    289c:	e5828000 	str	r8, [r2]
    28a0:	e5829004 	str	r9, [r2, #4]
    28a4:	e1cc80d8 	ldrd	r8, [ip, #8]
    28a8:	e5828008 	str	r8, [r2, #8]
    28ac:	e582900c 	str	r9, [r2, #12]
	if (copy_to_user(buffer + *total_read, msg, CHAR_DEV_MSG_SIZE)) {
    28b0:	e5950000 	ldr	r0, [r5]
    28b4:	e0810000 	add	r0, r1, r0
    28b8:	e1500003 	cmp	r0, r3
    28bc:	9a000002 	bls	28cc <sfe_ipv6_debug_dev_read_exceptions_end+0x58>
		return false;
    28c0:	e3a00000 	mov	r0, #0
}
    28c4:	e24bd024 	sub	sp, fp, #36	@ 0x24
    28c8:	e89dabf0 	ldm	sp, {r4, r5, r6, r7, r8, r9, fp, sp, pc}
    28cc:	ee1d3f70 	mrc	15, 0, r3, cr13, cr0, {3}
	asm(
    28d0:	ee138f10 	mrc	15, 0, r8, cr3, cr0, {0}
	set_domain((old_domain & ~domain_mask(DOMAIN_USER)) |
    28d4:	e3c8300c 	bic	r3, r8, #12
    28d8:	e3833004 	orr	r3, r3, #4
	asm volatile(
    28dc:	ee033f10 	mcr	15, 0, r3, cr3, cr0, {0}
	isb();
    28e0:	f57ff06f 	isb	sy
	n = arm_copy_to_user(to, from, n);
    28e4:	e1a01002 	mov	r1, r2
    28e8:	e3a02c03 	mov	r2, #768	@ 0x300
    28ec:	ebfffffe 	bl	0 <arm_copy_to_user>
	asm volatile(
    28f0:	ee038f10 	mcr	15, 0, r8, cr3, cr0, {0}
	isb();
    28f4:	f57ff06f 	isb	sy
	if (copy_to_user(buffer + *total_read, msg, CHAR_DEV_MSG_SIZE)) {
    28f8:	e3500000 	cmp	r0, #0
    28fc:	1affffef 	bne	28c0 <sfe_ipv6_debug_dev_read_exceptions_end+0x4c>
	*length -= bytes_read;
    2900:	e5943000 	ldr	r3, [r4]
	return true;
    2904:	e3a00001 	mov	r0, #1
	*length -= bytes_read;
    2908:	e243300f 	sub	r3, r3, #15
    290c:	e5843000 	str	r3, [r4]
	*total_read += bytes_read;
    2910:	e5953000 	ldr	r3, [r5]
    2914:	e283300f 	add	r3, r3, #15
    2918:	e5853000 	str	r3, [r5]
	ws->state++;
    291c:	e5963000 	ldr	r3, [r6]
    2920:	e0833000 	add	r3, r3, r0
    2924:	e5863000 	str	r3, [r6]
}
    2928:	e24bd024 	sub	sp, fp, #36	@ 0x24
    292c:	e89dabf0 	ldm	sp, {r4, r5, r6, r7, r8, r9, fp, sp, pc}

00002930 <sfe_ipv6_debug_dev_read_connections_end>:
{
    2930:	e1a0c00d 	mov	ip, sp
    2934:	e92ddbf0 	push	{r4, r5, r6, r7, r8, r9, fp, ip, lr, pc}
    2938:	e24cb004 	sub	fp, ip, #4
	bytes_read = snprintf(msg, CHAR_DEV_MSG_SIZE, "\t</connections>\n");
    293c:	e300c000 	movw	ip, #0
{
    2940:	e99b0060 	ldmib	fp, {r5, r6}
    2944:	e1a04003 	mov	r4, r3
	bytes_read = snprintf(msg, CHAR_DEV_MSG_SIZE, "\t</connections>\n");
    2948:	e340c000 	movt	ip, #0
    294c:	e1cc80d0 	ldrd	r8, [ip]
    2950:	e5dc3010 	ldrb	r3, [ip, #16]
    2954:	e5828000 	str	r8, [r2]
    2958:	e5829004 	str	r9, [r2, #4]
    295c:	e1cc80d8 	ldrd	r8, [ip, #8]
    2960:	e5828008 	str	r8, [r2, #8]
    2964:	e582900c 	str	r9, [r2, #12]
    2968:	e5c23010 	strb	r3, [r2, #16]
	if (copy_to_user(buffer + *total_read, msg, CHAR_DEV_MSG_SIZE)) {
    296c:	e5950000 	ldr	r0, [r5]
    2970:	e3a03cfd 	mov	r3, #64768	@ 0xfd00
    2974:	e34b3eff 	movt	r3, #48895	@ 0xbeff
    2978:	e0810000 	add	r0, r1, r0
    297c:	e1500003 	cmp	r0, r3
    2980:	9a000002 	bls	2990 <sfe_ipv6_debug_dev_read_connections_end+0x60>
		return false;
    2984:	e3a00000 	mov	r0, #0
}
    2988:	e24bd024 	sub	sp, fp, #36	@ 0x24
    298c:	e89dabf0 	ldm	sp, {r4, r5, r6, r7, r8, r9, fp, sp, pc}
    2990:	ee1d3f70 	mrc	15, 0, r3, cr13, cr0, {3}
	asm(
    2994:	ee138f10 	mrc	15, 0, r8, cr3, cr0, {0}
	set_domain((old_domain & ~domain_mask(DOMAIN_USER)) |
    2998:	e3c8300c 	bic	r3, r8, #12
    299c:	e3833004 	orr	r3, r3, #4
	asm volatile(
    29a0:	ee033f10 	mcr	15, 0, r3, cr3, cr0, {0}
	isb();
    29a4:	f57ff06f 	isb	sy
	n = arm_copy_to_user(to, from, n);
    29a8:	e1a01002 	mov	r1, r2
    29ac:	e3a02c03 	mov	r2, #768	@ 0x300
    29b0:	ebfffffe 	bl	0 <arm_copy_to_user>
	asm volatile(
    29b4:	ee038f10 	mcr	15, 0, r8, cr3, cr0, {0}
	isb();
    29b8:	f57ff06f 	isb	sy
	if (copy_to_user(buffer + *total_read, msg, CHAR_DEV_MSG_SIZE)) {
    29bc:	e3500000 	cmp	r0, #0
    29c0:	1affffef 	bne	2984 <sfe_ipv6_debug_dev_read_connections_end+0x54>
	*length -= bytes_read;
    29c4:	e5943000 	ldr	r3, [r4]
	return true;
    29c8:	e3a00001 	mov	r0, #1
	*length -= bytes_read;
    29cc:	e2433010 	sub	r3, r3, #16
    29d0:	e5843000 	str	r3, [r4]
	*total_read += bytes_read;
    29d4:	e5953000 	ldr	r3, [r5]
    29d8:	e2833010 	add	r3, r3, #16
    29dc:	e5853000 	str	r3, [r5]
	ws->state++;
    29e0:	e5963000 	ldr	r3, [r6]
    29e4:	e0833000 	add	r3, r3, r0
    29e8:	e5863000 	str	r3, [r6]
}
    29ec:	e24bd024 	sub	sp, fp, #36	@ 0x24
    29f0:	e89dabf0 	ldm	sp, {r4, r5, r6, r7, r8, r9, fp, sp, pc}

000029f4 <sfe_ipv4_debug_dev_read_end>:
{
    29f4:	e1a0c00d 	mov	ip, sp
    29f8:	e92ddbf0 	push	{r4, r5, r6, r7, r8, r9, fp, ip, lr, pc}
    29fc:	e24cb004 	sub	fp, ip, #4
	bytes_read = snprintf(msg, CHAR_DEV_MSG_SIZE, "</sfe_ipv4>\n");
    2a00:	e300c000 	movw	ip, #0
{
    2a04:	e1a04003 	mov	r4, r3
    2a08:	e99b0060 	ldmib	fp, {r5, r6}
	bytes_read = snprintf(msg, CHAR_DEV_MSG_SIZE, "</sfe_ipv4>\n");
    2a0c:	e340c000 	movt	ip, #0
    2a10:	e59c3008 	ldr	r3, [ip, #8]
    2a14:	e1cc80d0 	ldrd	r8, [ip]
    2a18:	e5823008 	str	r3, [r2, #8]
    2a1c:	e5dc300c 	ldrb	r3, [ip, #12]
    2a20:	e5828000 	str	r8, [r2]
    2a24:	e5829004 	str	r9, [r2, #4]
    2a28:	e5c2300c 	strb	r3, [r2, #12]
	if (copy_to_user(buffer + *total_read, msg, CHAR_DEV_MSG_SIZE)) {
    2a2c:	e5953000 	ldr	r3, [r5]
    2a30:	e0810003 	add	r0, r1, r3
    2a34:	e3a03cfd 	mov	r3, #64768	@ 0xfd00
    2a38:	e34b3eff 	movt	r3, #48895	@ 0xbeff
    2a3c:	e1500003 	cmp	r0, r3
    2a40:	9a000002 	bls	2a50 <sfe_ipv4_debug_dev_read_end+0x5c>
		return false;
    2a44:	e3a00000 	mov	r0, #0
}
    2a48:	e24bd024 	sub	sp, fp, #36	@ 0x24
    2a4c:	e89dabf0 	ldm	sp, {r4, r5, r6, r7, r8, r9, fp, sp, pc}
    2a50:	ee1d3f70 	mrc	15, 0, r3, cr13, cr0, {3}
	asm(
    2a54:	ee137f10 	mrc	15, 0, r7, cr3, cr0, {0}
	set_domain((old_domain & ~domain_mask(DOMAIN_USER)) |
    2a58:	e3c7300c 	bic	r3, r7, #12
    2a5c:	e3833004 	orr	r3, r3, #4
	asm volatile(
    2a60:	ee033f10 	mcr	15, 0, r3, cr3, cr0, {0}
	isb();
    2a64:	f57ff06f 	isb	sy
	n = arm_copy_to_user(to, from, n);
    2a68:	e1a01002 	mov	r1, r2
    2a6c:	e3a02c03 	mov	r2, #768	@ 0x300
    2a70:	ebfffffe 	bl	0 <arm_copy_to_user>
	asm volatile(
    2a74:	ee037f10 	mcr	15, 0, r7, cr3, cr0, {0}
	isb();
    2a78:	f57ff06f 	isb	sy
	if (copy_to_user(buffer + *total_read, msg, CHAR_DEV_MSG_SIZE)) {
    2a7c:	e3500000 	cmp	r0, #0
    2a80:	1affffef 	bne	2a44 <sfe_ipv4_debug_dev_read_end+0x50>
	*length -= bytes_read;
    2a84:	e5943000 	ldr	r3, [r4]
	return true;
    2a88:	e3a00001 	mov	r0, #1
	*length -= bytes_read;
    2a8c:	e243300c 	sub	r3, r3, #12
    2a90:	e5843000 	str	r3, [r4]
	*total_read += bytes_read;
    2a94:	e5953000 	ldr	r3, [r5]
    2a98:	e283300c 	add	r3, r3, #12
    2a9c:	e5853000 	str	r3, [r5]
	ws->state++;
    2aa0:	e5963000 	ldr	r3, [r6]
    2aa4:	e0833000 	add	r3, r3, r0
    2aa8:	e5863000 	str	r3, [r6]
}
    2aac:	e24bd024 	sub	sp, fp, #36	@ 0x24
    2ab0:	e89dabf0 	ldm	sp, {r4, r5, r6, r7, r8, r9, fp, sp, pc}

00002ab4 <sfe_ipv4_debug_dev_read_exceptions_start>:
{
    2ab4:	e1a0c00d 	mov	ip, sp
    2ab8:	e92ddbf0 	push	{r4, r5, r6, r7, r8, r9, fp, ip, lr, pc}
    2abc:	e24cb004 	sub	fp, ip, #4
	bytes_read = snprintf(msg, CHAR_DEV_MSG_SIZE, "\t<exceptions>\n");
    2ac0:	e300c000 	movw	ip, #0
{
    2ac4:	e1a04003 	mov	r4, r3
    2ac8:	e99b0060 	ldmib	fp, {r5, r6}
	bytes_read = snprintf(msg, CHAR_DEV_MSG_SIZE, "\t<exceptions>\n");
    2acc:	e340c000 	movt	ip, #0
    2ad0:	e59c3008 	ldr	r3, [ip, #8]
    2ad4:	e1cc80d0 	ldrd	r8, [ip]
    2ad8:	e5823008 	str	r3, [r2, #8]
    2adc:	e1dc30bc 	ldrh	r3, [ip, #12]
    2ae0:	e5828000 	str	r8, [r2]
    2ae4:	e5829004 	str	r9, [r2, #4]
    2ae8:	e1c230bc 	strh	r3, [r2, #12]
    2aec:	e5dc300e 	ldrb	r3, [ip, #14]
    2af0:	e5c2300e 	strb	r3, [r2, #14]
	if (copy_to_user(buffer + *total_read, msg, CHAR_DEV_MSG_SIZE)) {
    2af4:	e5953000 	ldr	r3, [r5]
    2af8:	e0810003 	add	r0, r1, r3
    2afc:	e3a03cfd 	mov	r3, #64768	@ 0xfd00
    2b00:	e34b3eff 	movt	r3, #48895	@ 0xbeff
    2b04:	e1500003 	cmp	r0, r3
    2b08:	9a000002 	bls	2b18 <sfe_ipv4_debug_dev_read_exceptions_start+0x64>
		return false;
    2b0c:	e3a00000 	mov	r0, #0
}
    2b10:	e24bd024 	sub	sp, fp, #36	@ 0x24
    2b14:	e89dabf0 	ldm	sp, {r4, r5, r6, r7, r8, r9, fp, sp, pc}
    2b18:	ee1d3f70 	mrc	15, 0, r3, cr13, cr0, {3}
	asm(
    2b1c:	ee137f10 	mrc	15, 0, r7, cr3, cr0, {0}
	set_domain((old_domain & ~domain_mask(DOMAIN_USER)) |
    2b20:	e3c7300c 	bic	r3, r7, #12
    2b24:	e3833004 	orr	r3, r3, #4
	asm volatile(
    2b28:	ee033f10 	mcr	15, 0, r3, cr3, cr0, {0}
	isb();
    2b2c:	f57ff06f 	isb	sy
	n = arm_copy_to_user(to, from, n);
    2b30:	e1a01002 	mov	r1, r2
    2b34:	e3a02c03 	mov	r2, #768	@ 0x300
    2b38:	ebfffffe 	bl	0 <arm_copy_to_user>
	asm volatile(
    2b3c:	ee037f10 	mcr	15, 0, r7, cr3, cr0, {0}
	isb();
    2b40:	f57ff06f 	isb	sy
	if (copy_to_user(buffer + *total_read, msg, CHAR_DEV_MSG_SIZE)) {
    2b44:	e3500000 	cmp	r0, #0
    2b48:	1affffef 	bne	2b0c <sfe_ipv4_debug_dev_read_exceptions_start+0x58>
	*length -= bytes_read;
    2b4c:	e5943000 	ldr	r3, [r4]
	return true;
    2b50:	e3a00001 	mov	r0, #1
	*length -= bytes_read;
    2b54:	e243300e 	sub	r3, r3, #14
    2b58:	e5843000 	str	r3, [r4]
	*total_read += bytes_read;
    2b5c:	e5953000 	ldr	r3, [r5]
    2b60:	e283300e 	add	r3, r3, #14
    2b64:	e5853000 	str	r3, [r5]
	ws->state++;
    2b68:	e5963000 	ldr	r3, [r6]
    2b6c:	e0833000 	add	r3, r3, r0
    2b70:	e5863000 	str	r3, [r6]
}
    2b74:	e24bd024 	sub	sp, fp, #36	@ 0x24
    2b78:	e89dabf0 	ldm	sp, {r4, r5, r6, r7, r8, r9, fp, sp, pc}

00002b7c <sfe_ipv4_debug_dev_read_connections_start>:
{
    2b7c:	e1a0c00d 	mov	ip, sp
    2b80:	e92ddbf0 	push	{r4, r5, r6, r7, r8, r9, fp, ip, lr, pc}
    2b84:	e24cb004 	sub	fp, ip, #4
	bytes_read = snprintf(msg, CHAR_DEV_MSG_SIZE, "\t<connections>\n");
    2b88:	e300c000 	movw	ip, #0
{
    2b8c:	e99b0060 	ldmib	fp, {r5, r6}
    2b90:	e1a04003 	mov	r4, r3
	bytes_read = snprintf(msg, CHAR_DEV_MSG_SIZE, "\t<connections>\n");
    2b94:	e340c000 	movt	ip, #0
    2b98:	e3a03cfd 	mov	r3, #64768	@ 0xfd00
    2b9c:	e1cc80d0 	ldrd	r8, [ip]
    2ba0:	e34b3eff 	movt	r3, #48895	@ 0xbeff
    2ba4:	e5828000 	str	r8, [r2]
    2ba8:	e5829004 	str	r9, [r2, #4]
    2bac:	e1cc80d8 	ldrd	r8, [ip, #8]
    2bb0:	e5828008 	str	r8, [r2, #8]
    2bb4:	e582900c 	str	r9, [r2, #12]
	if (copy_to_user(buffer + *total_read, msg, CHAR_DEV_MSG_SIZE)) {
    2bb8:	e5950000 	ldr	r0, [r5]
    2bbc:	e0810000 	add	r0, r1, r0
    2bc0:	e1500003 	cmp	r0, r3
    2bc4:	9a000002 	bls	2bd4 <sfe_ipv4_debug_dev_read_connections_start+0x58>
		return false;
    2bc8:	e3a00000 	mov	r0, #0
}
    2bcc:	e24bd024 	sub	sp, fp, #36	@ 0x24
    2bd0:	e89dabf0 	ldm	sp, {r4, r5, r6, r7, r8, r9, fp, sp, pc}
    2bd4:	ee1d3f70 	mrc	15, 0, r3, cr13, cr0, {3}
	asm(
    2bd8:	ee138f10 	mrc	15, 0, r8, cr3, cr0, {0}
	set_domain((old_domain & ~domain_mask(DOMAIN_USER)) |
    2bdc:	e3c8300c 	bic	r3, r8, #12
    2be0:	e3833004 	orr	r3, r3, #4
	asm volatile(
    2be4:	ee033f10 	mcr	15, 0, r3, cr3, cr0, {0}
	isb();
    2be8:	f57ff06f 	isb	sy
	n = arm_copy_to_user(to, from, n);
    2bec:	e1a01002 	mov	r1, r2
    2bf0:	e3a02c03 	mov	r2, #768	@ 0x300
    2bf4:	ebfffffe 	bl	0 <arm_copy_to_user>
	asm volatile(
    2bf8:	ee038f10 	mcr	15, 0, r8, cr3, cr0, {0}
	isb();
    2bfc:	f57ff06f 	isb	sy
	if (copy_to_user(buffer + *total_read, msg, CHAR_DEV_MSG_SIZE)) {
    2c00:	e3500000 	cmp	r0, #0
    2c04:	1affffef 	bne	2bc8 <sfe_ipv4_debug_dev_read_connections_start+0x4c>
	*length -= bytes_read;
    2c08:	e5943000 	ldr	r3, [r4]
	return true;
    2c0c:	e3a00001 	mov	r0, #1
	*length -= bytes_read;
    2c10:	e243300f 	sub	r3, r3, #15
    2c14:	e5843000 	str	r3, [r4]
	*total_read += bytes_read;
    2c18:	e5953000 	ldr	r3, [r5]
    2c1c:	e283300f 	add	r3, r3, #15
    2c20:	e5853000 	str	r3, [r5]
	ws->state++;
    2c24:	e5963000 	ldr	r3, [r6]
    2c28:	e0833000 	add	r3, r3, r0
    2c2c:	e5863000 	str	r3, [r6]
}
    2c30:	e24bd024 	sub	sp, fp, #36	@ 0x24
    2c34:	e89dabf0 	ldm	sp, {r4, r5, r6, r7, r8, r9, fp, sp, pc}

00002c38 <sfe_ipv6_debug_dev_read_exceptions_start>:
{
    2c38:	e1a0c00d 	mov	ip, sp
    2c3c:	e92ddbf0 	push	{r4, r5, r6, r7, r8, r9, fp, ip, lr, pc}
    2c40:	e24cb004 	sub	fp, ip, #4
	bytes_read = snprintf(msg, CHAR_DEV_MSG_SIZE, "\t<exceptions>\n");
    2c44:	e300c000 	movw	ip, #0
{
    2c48:	e1a04003 	mov	r4, r3
    2c4c:	e99b0060 	ldmib	fp, {r5, r6}
	bytes_read = snprintf(msg, CHAR_DEV_MSG_SIZE, "\t<exceptions>\n");
    2c50:	e340c000 	movt	ip, #0
    2c54:	e59c3008 	ldr	r3, [ip, #8]
    2c58:	e1cc80d0 	ldrd	r8, [ip]
    2c5c:	e5823008 	str	r3, [r2, #8]
    2c60:	e1dc30bc 	ldrh	r3, [ip, #12]
    2c64:	e5828000 	str	r8, [r2]
    2c68:	e5829004 	str	r9, [r2, #4]
    2c6c:	e1c230bc 	strh	r3, [r2, #12]
    2c70:	e5dc300e 	ldrb	r3, [ip, #14]
    2c74:	e5c2300e 	strb	r3, [r2, #14]
	if (copy_to_user(buffer + *total_read, msg, CHAR_DEV_MSG_SIZE)) {
    2c78:	e5953000 	ldr	r3, [r5]
    2c7c:	e0810003 	add	r0, r1, r3
    2c80:	e3a03cfd 	mov	r3, #64768	@ 0xfd00
    2c84:	e34b3eff 	movt	r3, #48895	@ 0xbeff
    2c88:	e1500003 	cmp	r0, r3
    2c8c:	9a000002 	bls	2c9c <sfe_ipv6_debug_dev_read_exceptions_start+0x64>
		return false;
    2c90:	e3a00000 	mov	r0, #0
}
    2c94:	e24bd024 	sub	sp, fp, #36	@ 0x24
    2c98:	e89dabf0 	ldm	sp, {r4, r5, r6, r7, r8, r9, fp, sp, pc}
    2c9c:	ee1d3f70 	mrc	15, 0, r3, cr13, cr0, {3}
	asm(
    2ca0:	ee137f10 	mrc	15, 0, r7, cr3, cr0, {0}
	set_domain((old_domain & ~domain_mask(DOMAIN_USER)) |
    2ca4:	e3c7300c 	bic	r3, r7, #12
    2ca8:	e3833004 	orr	r3, r3, #4
	asm volatile(
    2cac:	ee033f10 	mcr	15, 0, r3, cr3, cr0, {0}
	isb();
    2cb0:	f57ff06f 	isb	sy
	n = arm_copy_to_user(to, from, n);
    2cb4:	e1a01002 	mov	r1, r2
    2cb8:	e3a02c03 	mov	r2, #768	@ 0x300
    2cbc:	ebfffffe 	bl	0 <arm_copy_to_user>
	asm volatile(
    2cc0:	ee037f10 	mcr	15, 0, r7, cr3, cr0, {0}
	isb();
    2cc4:	f57ff06f 	isb	sy
	if (copy_to_user(buffer + *total_read, msg, CHAR_DEV_MSG_SIZE)) {
    2cc8:	e3500000 	cmp	r0, #0
    2ccc:	1affffef 	bne	2c90 <sfe_ipv6_debug_dev_read_exceptions_start+0x58>
	*length -= bytes_read;
    2cd0:	e5943000 	ldr	r3, [r4]
	return true;
    2cd4:	e3a00001 	mov	r0, #1
	*length -= bytes_read;
    2cd8:	e243300e 	sub	r3, r3, #14
    2cdc:	e5843000 	str	r3, [r4]
	*total_read += bytes_read;
    2ce0:	e5953000 	ldr	r3, [r5]
    2ce4:	e283300e 	add	r3, r3, #14
    2ce8:	e5853000 	str	r3, [r5]
	ws->state++;
    2cec:	e5963000 	ldr	r3, [r6]
    2cf0:	e0833000 	add	r3, r3, r0
    2cf4:	e5863000 	str	r3, [r6]
}
    2cf8:	e24bd024 	sub	sp, fp, #36	@ 0x24
    2cfc:	e89dabf0 	ldm	sp, {r4, r5, r6, r7, r8, r9, fp, sp, pc}

00002d00 <sfe_ipv4_debug_dev_read_exceptions_end>:
{
    2d00:	e1a0c00d 	mov	ip, sp
    2d04:	e92ddbf0 	push	{r4, r5, r6, r7, r8, r9, fp, ip, lr, pc}
    2d08:	e24cb004 	sub	fp, ip, #4
	bytes_read = snprintf(msg, CHAR_DEV_MSG_SIZE, "\t</exceptions>\n");
    2d0c:	e300c000 	movw	ip, #0
{
    2d10:	e99b0060 	ldmib	fp, {r5, r6}
    2d14:	e1a04003 	mov	r4, r3
	bytes_read = snprintf(msg, CHAR_DEV_MSG_SIZE, "\t</exceptions>\n");
    2d18:	e340c000 	movt	ip, #0
    2d1c:	e3a03cfd 	mov	r3, #64768	@ 0xfd00
    2d20:	e1cc80d0 	ldrd	r8, [ip]
    2d24:	e34b3eff 	movt	r3, #48895	@ 0xbeff
    2d28:	e5828000 	str	r8, [r2]
    2d2c:	e5829004 	str	r9, [r2, #4]
    2d30:	e1cc80d8 	ldrd	r8, [ip, #8]
    2d34:	e5828008 	str	r8, [r2, #8]
    2d38:	e582900c 	str	r9, [r2, #12]
	if (copy_to_user(buffer + *total_read, msg, CHAR_DEV_MSG_SIZE)) {
    2d3c:	e5950000 	ldr	r0, [r5]
    2d40:	e0810000 	add	r0, r1, r0
    2d44:	e1500003 	cmp	r0, r3
    2d48:	9a000002 	bls	2d58 <sfe_ipv4_debug_dev_read_exceptions_end+0x58>
		return false;
    2d4c:	e3a00000 	mov	r0, #0
}
    2d50:	e24bd024 	sub	sp, fp, #36	@ 0x24
    2d54:	e89dabf0 	ldm	sp, {r4, r5, r6, r7, r8, r9, fp, sp, pc}
    2d58:	ee1d3f70 	mrc	15, 0, r3, cr13, cr0, {3}
	asm(
    2d5c:	ee138f10 	mrc	15, 0, r8, cr3, cr0, {0}
	set_domain((old_domain & ~domain_mask(DOMAIN_USER)) |
    2d60:	e3c8300c 	bic	r3, r8, #12
    2d64:	e3833004 	orr	r3, r3, #4
	asm volatile(
    2d68:	ee033f10 	mcr	15, 0, r3, cr3, cr0, {0}
	isb();
    2d6c:	f57ff06f 	isb	sy
	n = arm_copy_to_user(to, from, n);
    2d70:	e1a01002 	mov	r1, r2
    2d74:	e3a02c03 	mov	r2, #768	@ 0x300
    2d78:	ebfffffe 	bl	0 <arm_copy_to_user>
	asm volatile(
    2d7c:	ee038f10 	mcr	15, 0, r8, cr3, cr0, {0}
	isb();
    2d80:	f57ff06f 	isb	sy
	if (copy_to_user(buffer + *total_read, msg, CHAR_DEV_MSG_SIZE)) {
    2d84:	e3500000 	cmp	r0, #0
    2d88:	1affffef 	bne	2d4c <sfe_ipv4_debug_dev_read_exceptions_end+0x4c>
	*length -= bytes_read;
    2d8c:	e5943000 	ldr	r3, [r4]
	return true;
    2d90:	e3a00001 	mov	r0, #1
	*length -= bytes_read;
    2d94:	e243300f 	sub	r3, r3, #15
    2d98:	e5843000 	str	r3, [r4]
	*total_read += bytes_read;
    2d9c:	e5953000 	ldr	r3, [r5]
    2da0:	e283300f 	add	r3, r3, #15
    2da4:	e5853000 	str	r3, [r5]
	ws->state++;
    2da8:	e5963000 	ldr	r3, [r6]
    2dac:	e0833000 	add	r3, r3, r0
    2db0:	e5863000 	str	r3, [r6]
}
    2db4:	e24bd024 	sub	sp, fp, #36	@ 0x24
    2db8:	e89dabf0 	ldm	sp, {r4, r5, r6, r7, r8, r9, fp, sp, pc}

00002dbc <sfe_ipv6_debug_dev_read_connections_start>:
{
    2dbc:	e1a0c00d 	mov	ip, sp
    2dc0:	e92ddbf0 	push	{r4, r5, r6, r7, r8, r9, fp, ip, lr, pc}
    2dc4:	e24cb004 	sub	fp, ip, #4
	bytes_read = snprintf(msg, CHAR_DEV_MSG_SIZE, "\t<connections>\n");
    2dc8:	e300c000 	movw	ip, #0
{
    2dcc:	e99b0060 	ldmib	fp, {r5, r6}
    2dd0:	e1a04003 	mov	r4, r3
	bytes_read = snprintf(msg, CHAR_DEV_MSG_SIZE, "\t<connections>\n");
    2dd4:	e340c000 	movt	ip, #0
    2dd8:	e3a03cfd 	mov	r3, #64768	@ 0xfd00
    2ddc:	e1cc80d0 	ldrd	r8, [ip]
    2de0:	e34b3eff 	movt	r3, #48895	@ 0xbeff
    2de4:	e5828000 	str	r8, [r2]
    2de8:	e5829004 	str	r9, [r2, #4]
    2dec:	e1cc80d8 	ldrd	r8, [ip, #8]
    2df0:	e5828008 	str	r8, [r2, #8]
    2df4:	e582900c 	str	r9, [r2, #12]
	if (copy_to_user(buffer + *total_read, msg, CHAR_DEV_MSG_SIZE)) {
    2df8:	e5950000 	ldr	r0, [r5]
    2dfc:	e0810000 	add	r0, r1, r0
    2e00:	e1500003 	cmp	r0, r3
    2e04:	9a000002 	bls	2e14 <sfe_ipv6_debug_dev_read_connections_start+0x58>
		return false;
    2e08:	e3a00000 	mov	r0, #0
}
    2e0c:	e24bd024 	sub	sp, fp, #36	@ 0x24
    2e10:	e89dabf0 	ldm	sp, {r4, r5, r6, r7, r8, r9, fp, sp, pc}
    2e14:	ee1d3f70 	mrc	15, 0, r3, cr13, cr0, {3}
	asm(
    2e18:	ee138f10 	mrc	15, 0, r8, cr3, cr0, {0}
	set_domain((old_domain & ~domain_mask(DOMAIN_USER)) |
    2e1c:	e3c8300c 	bic	r3, r8, #12
    2e20:	e3833004 	orr	r3, r3, #4
	asm volatile(
    2e24:	ee033f10 	mcr	15, 0, r3, cr3, cr0, {0}
	isb();
    2e28:	f57ff06f 	isb	sy
	n = arm_copy_to_user(to, from, n);
    2e2c:	e1a01002 	mov	r1, r2
    2e30:	e3a02c03 	mov	r2, #768	@ 0x300
    2e34:	ebfffffe 	bl	0 <arm_copy_to_user>
	asm volatile(
    2e38:	ee038f10 	mcr	15, 0, r8, cr3, cr0, {0}
	isb();
    2e3c:	f57ff06f 	isb	sy
	if (copy_to_user(buffer + *total_read, msg, CHAR_DEV_MSG_SIZE)) {
    2e40:	e3500000 	cmp	r0, #0
    2e44:	1affffef 	bne	2e08 <sfe_ipv6_debug_dev_read_connections_start+0x4c>
	*length -= bytes_read;
    2e48:	e5943000 	ldr	r3, [r4]
	return true;
    2e4c:	e3a00001 	mov	r0, #1
	*length -= bytes_read;
    2e50:	e243300f 	sub	r3, r3, #15
    2e54:	e5843000 	str	r3, [r4]
	*total_read += bytes_read;
    2e58:	e5953000 	ldr	r3, [r5]
    2e5c:	e283300f 	add	r3, r3, #15
    2e60:	e5853000 	str	r3, [r5]
	ws->state++;
    2e64:	e5963000 	ldr	r3, [r6]
    2e68:	e0833000 	add	r3, r3, r0
    2e6c:	e5863000 	str	r3, [r6]
}
    2e70:	e24bd024 	sub	sp, fp, #36	@ 0x24
    2e74:	e89dabf0 	ldm	sp, {r4, r5, r6, r7, r8, r9, fp, sp, pc}

00002e78 <sfe_ipv4_debug_dev_read_start>:
{
    2e78:	e1a0c00d 	mov	ip, sp
    2e7c:	e92ddbf0 	push	{r4, r5, r6, r7, r8, r9, fp, ip, lr, pc}
    2e80:	e24cb004 	sub	fp, ip, #4
	si->debug_read_seq++;
    2e84:	e2800902 	add	r0, r0, #32768	@ 0x8000
{
    2e88:	e1a06003 	mov	r6, r3
    2e8c:	e1cb40d4 	ldrd	r4, [fp, #4]
	si->debug_read_seq++;
    2e90:	e5903260 	ldr	r3, [r0, #608]	@ 0x260
	bytes_read = snprintf(msg, CHAR_DEV_MSG_SIZE, "<sfe_ipv4>\n");
    2e94:	e300c000 	movw	ip, #0
    2e98:	e340c000 	movt	ip, #0
    2e9c:	e1cc80d0 	ldrd	r8, [ip]
	si->debug_read_seq++;
    2ea0:	e2833001 	add	r3, r3, #1
    2ea4:	e5803260 	str	r3, [r0, #608]	@ 0x260
	bytes_read = snprintf(msg, CHAR_DEV_MSG_SIZE, "<sfe_ipv4>\n");
    2ea8:	e59c0008 	ldr	r0, [ip, #8]
    2eac:	e3a03cfd 	mov	r3, #64768	@ 0xfd00
    2eb0:	e5828000 	str	r8, [r2]
    2eb4:	e34b3eff 	movt	r3, #48895	@ 0xbeff
    2eb8:	e5829004 	str	r9, [r2, #4]
    2ebc:	e5820008 	str	r0, [r2, #8]
	if (copy_to_user(buffer + *total_read, msg, CHAR_DEV_MSG_SIZE)) {
    2ec0:	e5940000 	ldr	r0, [r4]
    2ec4:	e0810000 	add	r0, r1, r0
    2ec8:	e1500003 	cmp	r0, r3
    2ecc:	9a000002 	bls	2edc <sfe_ipv4_debug_dev_read_start+0x64>
		return false;
    2ed0:	e3a00000 	mov	r0, #0
}
    2ed4:	e24bd024 	sub	sp, fp, #36	@ 0x24
    2ed8:	e89dabf0 	ldm	sp, {r4, r5, r6, r7, r8, r9, fp, sp, pc}
    2edc:	ee1d3f70 	mrc	15, 0, r3, cr13, cr0, {3}
	asm(
    2ee0:	ee137f10 	mrc	15, 0, r7, cr3, cr0, {0}
	set_domain((old_domain & ~domain_mask(DOMAIN_USER)) |
    2ee4:	e3c7300c 	bic	r3, r7, #12
    2ee8:	e3833004 	orr	r3, r3, #4
	asm volatile(
    2eec:	ee033f10 	mcr	15, 0, r3, cr3, cr0, {0}
	isb();
    2ef0:	f57ff06f 	isb	sy
	n = arm_copy_to_user(to, from, n);
    2ef4:	e1a01002 	mov	r1, r2
    2ef8:	e3a02c03 	mov	r2, #768	@ 0x300
    2efc:	ebfffffe 	bl	0 <arm_copy_to_user>
	asm volatile(
    2f00:	ee037f10 	mcr	15, 0, r7, cr3, cr0, {0}
	isb();
    2f04:	f57ff06f 	isb	sy
	if (copy_to_user(buffer + *total_read, msg, CHAR_DEV_MSG_SIZE)) {
    2f08:	e3500000 	cmp	r0, #0
    2f0c:	1affffef 	bne	2ed0 <sfe_ipv4_debug_dev_read_start+0x58>
	*length -= bytes_read;
    2f10:	e5963000 	ldr	r3, [r6]
	return true;
    2f14:	e3a00001 	mov	r0, #1
	*length -= bytes_read;
    2f18:	e243300b 	sub	r3, r3, #11
    2f1c:	e5863000 	str	r3, [r6]
	*total_read += bytes_read;
    2f20:	e5943000 	ldr	r3, [r4]
    2f24:	e283300b 	add	r3, r3, #11
    2f28:	e5843000 	str	r3, [r4]
	ws->state++;
    2f2c:	e5953000 	ldr	r3, [r5]
    2f30:	e0833000 	add	r3, r3, r0
    2f34:	e5853000 	str	r3, [r5]
}
    2f38:	e24bd024 	sub	sp, fp, #36	@ 0x24
    2f3c:	e89dabf0 	ldm	sp, {r4, r5, r6, r7, r8, r9, fp, sp, pc}

00002f40 <sfe_ipv6_debug_dev_read_start>:
{
    2f40:	e1a0c00d 	mov	ip, sp
    2f44:	e92ddbf0 	push	{r4, r5, r6, r7, r8, r9, fp, ip, lr, pc}
    2f48:	e24cb004 	sub	fp, ip, #4
	si->debug_read_seq++;
    2f4c:	e2800902 	add	r0, r0, #32768	@ 0x8000
{
    2f50:	e1a06003 	mov	r6, r3
    2f54:	e1cb40d4 	ldrd	r4, [fp, #4]
	si->debug_read_seq++;
    2f58:	e5903270 	ldr	r3, [r0, #624]	@ 0x270
	bytes_read = snprintf(msg, CHAR_DEV_MSG_SIZE, "<sfe_ipv6>\n");
    2f5c:	e300c000 	movw	ip, #0
    2f60:	e340c000 	movt	ip, #0
    2f64:	e1cc80d0 	ldrd	r8, [ip]
	si->debug_read_seq++;
    2f68:	e2833001 	add	r3, r3, #1
    2f6c:	e5803270 	str	r3, [r0, #624]	@ 0x270
	bytes_read = snprintf(msg, CHAR_DEV_MSG_SIZE, "<sfe_ipv6>\n");
    2f70:	e59c0008 	ldr	r0, [ip, #8]
    2f74:	e3a03cfd 	mov	r3, #64768	@ 0xfd00
    2f78:	e5828000 	str	r8, [r2]
    2f7c:	e34b3eff 	movt	r3, #48895	@ 0xbeff
    2f80:	e5829004 	str	r9, [r2, #4]
    2f84:	e5820008 	str	r0, [r2, #8]
	if (copy_to_user(buffer + *total_read, msg, CHAR_DEV_MSG_SIZE)) {
    2f88:	e5940000 	ldr	r0, [r4]
    2f8c:	e0810000 	add	r0, r1, r0
    2f90:	e1500003 	cmp	r0, r3
    2f94:	9a000002 	bls	2fa4 <sfe_ipv6_debug_dev_read_start+0x64>
		return false;
    2f98:	e3a00000 	mov	r0, #0
}
    2f9c:	e24bd024 	sub	sp, fp, #36	@ 0x24
    2fa0:	e89dabf0 	ldm	sp, {r4, r5, r6, r7, r8, r9, fp, sp, pc}
    2fa4:	ee1d3f70 	mrc	15, 0, r3, cr13, cr0, {3}
	asm(
    2fa8:	ee137f10 	mrc	15, 0, r7, cr3, cr0, {0}
	set_domain((old_domain & ~domain_mask(DOMAIN_USER)) |
    2fac:	e3c7300c 	bic	r3, r7, #12
    2fb0:	e3833004 	orr	r3, r3, #4
	asm volatile(
    2fb4:	ee033f10 	mcr	15, 0, r3, cr3, cr0, {0}
	isb();
    2fb8:	f57ff06f 	isb	sy
	n = arm_copy_to_user(to, from, n);
    2fbc:	e1a01002 	mov	r1, r2
    2fc0:	e3a02c03 	mov	r2, #768	@ 0x300
    2fc4:	ebfffffe 	bl	0 <arm_copy_to_user>
	asm volatile(
    2fc8:	ee037f10 	mcr	15, 0, r7, cr3, cr0, {0}
	isb();
    2fcc:	f57ff06f 	isb	sy
	if (copy_to_user(buffer + *total_read, msg, CHAR_DEV_MSG_SIZE)) {
    2fd0:	e3500000 	cmp	r0, #0
    2fd4:	1affffef 	bne	2f98 <sfe_ipv6_debug_dev_read_start+0x58>
	*length -= bytes_read;
    2fd8:	e5963000 	ldr	r3, [r6]
	return true;
    2fdc:	e3a00001 	mov	r0, #1
	*length -= bytes_read;
    2fe0:	e243300b 	sub	r3, r3, #11
    2fe4:	e5863000 	str	r3, [r6]
	*total_read += bytes_read;
    2fe8:	e5943000 	ldr	r3, [r4]
    2fec:	e283300b 	add	r3, r3, #11
    2ff0:	e5843000 	str	r3, [r4]
	ws->state++;
    2ff4:	e5953000 	ldr	r3, [r5]
    2ff8:	e0833000 	add	r3, r3, r0
    2ffc:	e5853000 	str	r3, [r5]
}
    3000:	e24bd024 	sub	sp, fp, #36	@ 0x24
    3004:	e89dabf0 	ldm	sp, {r4, r5, r6, r7, r8, r9, fp, sp, pc}

00003008 <fast_classifier_find_dev_and_mac_addr>:
{
    3008:	e1a0c00d 	mov	ip, sp
    300c:	e92ddbf0 	push	{r4, r5, r6, r7, r8, r9, fp, ip, lr, pc}
    3010:	e24cb004 	sub	fp, ip, #4
    3014:	e24dd040 	sub	sp, sp, #64	@ 0x40
	if (unlikely(skb)) {
    3018:	e2505000 	subs	r5, r0, #0
{
    301c:	e1a04001 	mov	r4, r1
    3020:	e5db0004 	ldrb	r0, [fp, #4]
    3024:	e1a07002 	mov	r7, r2
    3028:	e1a08003 	mov	r8, r3
	if (unlikely(skb)) {
    302c:	1a00005e 	bne	31ac <fast_classifier_find_dev_and_mac_addr+0x1a4>
	if (likely(is_v4)) {
    3030:	e3500000 	cmp	r0, #0
    3034:	0a000060 	beq	31bc <fast_classifier_find_dev_and_mac_addr+0x1b4>
		rt = ip_route_output(&init_net, addr->ip, 0, 0, 0);
    3038:	e5946000 	ldr	r6, [r4]
}

static inline struct rtable *ip_route_output(struct net *net, __be32 daddr,
					     __be32 saddr, u8 tos, int oif)
{
	struct flowi4 fl4 = {
    303c:	e3a02034 	mov	r2, #52	@ 0x34
    3040:	e1a01005 	mov	r1, r5
    3044:	e24b0058 	sub	r0, fp, #88	@ 0x58
    3048:	ebfffffe 	bl	0 <memset>
	return ip_route_output_flow(net, flp, NULL);
    304c:	e3000000 	movw	r0, #0
    3050:	e1a02005 	mov	r2, r5
	struct flowi4 fl4 = {
    3054:	e50b505c 	str	r5, [fp, #-92]	@ 0xffffffa4
	return ip_route_output_flow(net, flp, NULL);
    3058:	e3400000 	movt	r0, #0
    305c:	e24b105c 	sub	r1, fp, #92	@ 0x5c
	struct flowi4 fl4 = {
    3060:	e50b6030 	str	r6, [fp, #-48]	@ 0xffffffd0
	return ip_route_output_flow(net, flp, NULL);
    3064:	ebfffffe 	bl	0 <ip_route_output_flow>
		if (unlikely(IS_ERR(rt))) {
    3068:	e3700a01 	cmn	r0, #4096	@ 0x1000
    306c:	e1a06000 	mov	r6, r0
    3070:	8a00004b 	bhi	31a4 <fast_classifier_find_dev_and_mac_addr+0x19c>
{
}

static inline struct neighbour *dst_neigh_lookup(const struct dst_entry *dst, const void *daddr)
{
	struct neighbour *n = dst->ops->neigh_lookup(dst, NULL, daddr);
    3074:	e5963004 	ldr	r3, [r6, #4]
    3078:	e1a02004 	mov	r2, r4
    307c:	e3a01000 	mov	r1, #0
    3080:	e1a00006 	mov	r0, r6
    3084:	e5933038 	ldr	r3, [r3, #56]	@ 0x38
    3088:	e12fff33 	blx	r3
	return IS_ERR(n) ? NULL : n;
    308c:	e3700a01 	cmn	r0, #4096	@ 0x1000
	if (unlikely(!neigh)) {
    3090:	e1a04000 	mov	r4, r0
    3094:	93a03000 	movls	r3, #0
    3098:	83a03001 	movhi	r3, #1
    309c:	e3500000 	cmp	r0, #0
    30a0:	03833001 	orreq	r3, r3, #1
    30a4:	e3530000 	cmp	r3, #0
    30a8:	1a000042 	bne	31b8 <fast_classifier_find_dev_and_mac_addr+0x1b0>
	if (unlikely(!(neigh->nud_state & NUD_VALID))) {
    30ac:	e5d0304c 	ldrb	r3, [r0, #76]	@ 0x4c
    30b0:	e31300de 	tst	r3, #222	@ 0xde
    30b4:	0a00002a 	beq	3164 <fast_classifier_find_dev_and_mac_addr+0x15c>
	mac_dev = neigh->dev;
    30b8:	e590912c 	ldr	r9, [r0, #300]	@ 0x12c
	if (!mac_dev) {
    30bc:	e3590000 	cmp	r9, #0
    30c0:	0a000027 	beq	3164 <fast_classifier_find_dev_and_mac_addr+0x15c>
	memcpy(mac_addr, neigh->ha, (size_t)mac_dev->addr_len);
    30c4:	e5d92181 	ldrb	r2, [r9, #385]	@ 0x181
    30c8:	e1a00008 	mov	r0, r8
    30cc:	e2841060 	add	r1, r4, #96	@ 0x60
    30d0:	ebfffffe 	bl	0 <memcpy>
	asm volatile(
    30d4:	e10f0000 	mrs	r0, CPSR
    30d8:	f10c0080 	cpsid	i
		this_cpu_inc(*dev->pcpu_refcnt);
    30dc:	e5993310 	ldr	r3, [r9, #784]	@ 0x310
    30e0:	ee1d1f90 	mrc	15, 0, r1, cr13, cr0, {4}
    30e4:	e7932001 	ldr	r2, [r3, r1]
    30e8:	e2822001 	add	r2, r2, #1
    30ec:	e7832001 	str	r2, [r3, r1]
	asm volatile(
    30f0:	e121f000 	msr	CPSR_c, r0
	*dev = mac_dev;
    30f4:	e5879000 	str	r9, [r7]
 *	Neighbour references
 */

static inline void neigh_release(struct neighbour *neigh)
{
	if (refcount_dec_and_test(&neigh->refcnt))
    30f8:	e2843018 	add	r3, r4, #24
    30fc:	f57ff05b 	dmb	ish
    3100:	f593f000 	pldw	[r3]
ATOMIC_OPS(sub, -=, sub)
    3104:	e1932f9f 	ldrex	r2, [r3]
    3108:	e2421001 	sub	r1, r2, #1
    310c:	e1830f91 	strex	r0, r1, [r3]
    3110:	e3300000 	teq	r0, #0
    3114:	1afffffa 	bne	3104 <fast_classifier_find_dev_and_mac_addr+0xfc>
	if (old == i) {
    3118:	e3520001 	cmp	r2, #1
    311c:	0a000008 	beq	3144 <fast_classifier_find_dev_and_mac_addr+0x13c>
	if (unlikely(old < 0 || old - i < 0))
    3120:	e3520000 	cmp	r2, #0
    3124:	da00000a 	ble	3154 <fast_classifier_find_dev_and_mac_addr+0x14c>
	if (likely(!skb)) {
    3128:	e3550000 	cmp	r5, #0
    312c:	1a000001 	bne	3138 <fast_classifier_find_dev_and_mac_addr+0x130>
		dst_release(dst);
    3130:	e1a00006 	mov	r0, r6
    3134:	ebfffffe 	bl	0 <dst_release>
	return true;
    3138:	e3a00001 	mov	r0, #1
}
    313c:	e24bd024 	sub	sp, fp, #36	@ 0x24
    3140:	e89dabf0 	ldm	sp, {r4, r5, r6, r7, r8, r9, fp, sp, pc}
		smp_acquire__after_ctrl_dep();
    3144:	f57ff05b 	dmb	ish
		neigh_destroy(neigh);
    3148:	e1a00004 	mov	r0, r4
    314c:	ebfffffe 	bl	0 <neigh_destroy>
    3150:	eafffff4 	b	3128 <fast_classifier_find_dev_and_mac_addr+0x120>
		refcount_warn_saturate(r, REFCOUNT_SUB_UAF);
    3154:	e3a01003 	mov	r1, #3
    3158:	e1a00003 	mov	r0, r3
    315c:	ebfffffe 	bl	0 <refcount_warn_saturate>
    3160:	eafffff0 	b	3128 <fast_classifier_find_dev_and_mac_addr+0x120>
	if (refcount_dec_and_test(&neigh->refcnt))
    3164:	e2844018 	add	r4, r4, #24
    3168:	f57ff05b 	dmb	ish
    316c:	f594f000 	pldw	[r4]
    3170:	e1943f9f 	ldrex	r3, [r4]
    3174:	e2432001 	sub	r2, r3, #1
    3178:	e1841f92 	strex	r1, r2, [r4]
    317c:	e3310000 	teq	r1, #0
    3180:	1afffffa 	bne	3170 <fast_classifier_find_dev_and_mac_addr+0x168>
	if (old == i) {
    3184:	e3530001 	cmp	r3, #1
    3188:	0a000015 	beq	31e4 <fast_classifier_find_dev_and_mac_addr+0x1dc>
	if (unlikely(old < 0 || old - i < 0))
    318c:	e3530000 	cmp	r3, #0
    3190:	da000016 	ble	31f0 <fast_classifier_find_dev_and_mac_addr+0x1e8>
		if (likely(!skb)) {
    3194:	e3550000 	cmp	r5, #0
    3198:	1a000001 	bne	31a4 <fast_classifier_find_dev_and_mac_addr+0x19c>
			dst_release(dst);
    319c:	e1a00006 	mov	r0, r6
    31a0:	ebfffffe 	bl	0 <dst_release>
	return false;
    31a4:	e3a00000 	mov	r0, #0
    31a8:	eaffffe3 	b	313c <fast_classifier_find_dev_and_mac_addr+0x134>
	return (struct dst_entry *)(skb->_skb_refdst & SKB_DST_PTRMASK);
    31ac:	e595604c 	ldr	r6, [r5, #76]	@ 0x4c
    31b0:	e3c66001 	bic	r6, r6, #1
		goto skip_dst_lookup;
    31b4:	eaffffae 	b	3074 <fast_classifier_find_dev_and_mac_addr+0x6c>
	preempt_disable();
}

static inline void __rcu_read_unlock(void)
{
	preempt_enable();
    31b8:	eafffff5 	b	3194 <fast_classifier_find_dev_and_mac_addr+0x18c>
		rt6 = rt6_lookup(&init_net, (struct in6_addr *)addr->ip6, NULL, 0,NULL, 0);
    31bc:	e3000000 	movw	r0, #0
    31c0:	e1a03005 	mov	r3, r5
    31c4:	e58d5000 	str	r5, [sp]
    31c8:	e3400000 	movt	r0, #0
    31cc:	e1a02005 	mov	r2, r5
    31d0:	e58d5004 	str	r5, [sp, #4]
    31d4:	ebfffffe 	bl	0 <rt6_lookup>
		if (!rt6) {
    31d8:	e2506000 	subs	r6, r0, #0
    31dc:	1affffa4 	bne	3074 <fast_classifier_find_dev_and_mac_addr+0x6c>
    31e0:	eaffffef 	b	31a4 <fast_classifier_find_dev_and_mac_addr+0x19c>
		smp_acquire__after_ctrl_dep();
    31e4:	f57ff05b 	dmb	ish
		neigh_destroy(neigh);
    31e8:	ebfffffe 	bl	0 <neigh_destroy>
    31ec:	eaffffe8 	b	3194 <fast_classifier_find_dev_and_mac_addr+0x18c>
		refcount_warn_saturate(r, REFCOUNT_SUB_UAF);
    31f0:	e3a01003 	mov	r1, #3
    31f4:	e1a00004 	mov	r0, r4
    31f8:	ebfffffe 	bl	0 <refcount_warn_saturate>
		if (likely(!skb)) {
    31fc:	eaffffe4 	b	3194 <fast_classifier_find_dev_and_mac_addr+0x18c>

00003200 <sfe_ipv6_debug_dev_write>:
{
    3200:	e1a0c00d 	mov	ip, sp
    3204:	e92dd8f0 	push	{r4, r5, r6, r7, fp, ip, lr, pc}
    3208:	e24cb004 	sub	fp, ip, #4
	raw_spin_lock_bh(&lock->rlock);
    320c:	e3005000 	movw	r5, #0
    3210:	e1a04002 	mov	r4, r2
    3214:	e3405000 	movt	r5, #0
    3218:	e1a00005 	mov	r0, r5
    321c:	ebfffffe 	bl	0 <_raw_spin_lock_bh>
	si->connection_create_requests = 0;
    3220:	e59f10b8 	ldr	r1, [pc, #184]	@ 32e0 <sfe_ipv6_debug_dev_write+0xe0>
    3224:	e3a03000 	mov	r3, #0
    3228:	e3a02000 	mov	r2, #0
    322c:	e3080030 	movw	r0, #32816	@ 0x8030
    3230:	e18520f0 	strd	r2, [r5, r0]
    3234:	e3080040 	movw	r0, #32832	@ 0x8040
    3238:	e281e010 	add	lr, r1, #16
    323c:	e14120f8 	strd	r2, [r1, #-8]
	si->packets_not_forwarded = 0;
    3240:	e2851902 	add	r1, r5, #32768	@ 0x8000
    3244:	e2817e13 	add	r7, r1, #304	@ 0x130
    3248:	e2816e26 	add	r6, r1, #608	@ 0x260
	si->connection_create_requests = 0;
    324c:	e14e20f8 	strd	r2, [lr, #-8]
    3250:	e18520f0 	strd	r2, [r5, r0]
	si->packets_not_forwarded = 0;
    3254:	e3a00000 	mov	r0, #0
    3258:	e1a03007 	mov	r3, r7
    325c:	e5810050 	str	r0, [r1, #80]	@ 0x50
		si->exception_events64[i] += si->exception_events[i];
    3260:	e5b31008 	ldr	r1, [r3, #8]!
    3264:	e5be2004 	ldr	r2, [lr, #4]!
    3268:	e593c004 	ldr	ip, [r3, #4]
    326c:	e0911002 	adds	r1, r1, r2
    3270:	e5831000 	str	r1, [r3]
    3274:	e2ac1000 	adc	r1, ip, #0
	for (i = 0; i < SFE_IPV6_EXCEPTION_EVENT_LAST; i++) {
    3278:	e1560003 	cmp	r6, r3
		si->exception_events64[i] += si->exception_events[i];
    327c:	e5831004 	str	r1, [r3, #4]
		si->exception_events[i] = 0;
    3280:	e58e0000 	str	r0, [lr]
	for (i = 0; i < SFE_IPV6_EXCEPTION_EVENT_LAST; i++) {
    3284:	1afffff5 	bne	3260 <sfe_ipv6_debug_dev_write+0x60>
	si->packets_forwarded64 = 0;
    3288:	e3a02000 	mov	r2, #0
    328c:	e3a03000 	mov	r3, #0
	si->connection_create_collisions64 = 0;
    3290:	e59f004c 	ldr	r0, [pc, #76]	@ 32e4 <sfe_ipv6_debug_dev_write+0xe4>
	si->packets_forwarded64 = 0;
    3294:	e3081130 	movw	r1, #33072	@ 0x8130
    3298:	e14720f8 	strd	r2, [r7, #-8]
	si->packets_not_forwarded64 = 0;
    329c:	e18520f1 	strd	r2, [r5, r1]
	si->connection_create_requests64 = 0;
    32a0:	e30810f0 	movw	r1, #33008	@ 0x80f0
	si->connection_create_collisions64 = 0;
    32a4:	e14020f8 	strd	r2, [r0, #-8]
	si->connection_create_requests64 = 0;
    32a8:	e18520f1 	strd	r2, [r5, r1]
	si->connection_destroy_requests64 = 0;
    32ac:	e1a01000 	mov	r1, r0
	si->connection_match_hash_reorders64 = 0;
    32b0:	e1c021f8 	strd	r2, [r0, #24]
	raw_spin_unlock_bh(&lock->rlock);
    32b4:	e2400c81 	sub	r0, r0, #33024	@ 0x8100
	si->connection_destroy_requests64 = 0;
    32b8:	e0c121f0 	strd	r2, [r1], #16
	si->connection_destroy_misses64 = 0;
    32bc:	e14120f8 	strd	r2, [r1, #-8]
	si->connection_flushes64 = 0;
    32c0:	e3081120 	movw	r1, #33056	@ 0x8120
    32c4:	e18520f1 	strd	r2, [r5, r1]
	si->connection_destroy_misses64 = 0;
    32c8:	e3081110 	movw	r1, #33040	@ 0x8110
	si->connection_match_hash_hits64 = 0;
    32cc:	e18520f1 	strd	r2, [r5, r1]
    32d0:	ebfffffe 	bl	0 <_raw_spin_unlock_bh>
}
    32d4:	e1a00004 	mov	r0, r4
    32d8:	e24bd01c 	sub	sp, fp, #28
    32dc:	e89da8f0 	ldm	sp, {r4, r5, r6, r7, fp, sp, pc}
    32e0:	00010090 	.word	0x00010090
    32e4:	00010150 	.word	0x00010150

000032e8 <sfe_ipv4_debug_dev_write>:
{
    32e8:	e1a0c00d 	mov	ip, sp
    32ec:	e92ddbf0 	push	{r4, r5, r6, r7, r8, r9, fp, ip, lr, pc}
    32f0:	e24cb004 	sub	fp, ip, #4
	raw_spin_lock_bh(&lock->rlock);
    32f4:	e3006000 	movw	r6, #0
    32f8:	e1a04002 	mov	r4, r2
    32fc:	e3406000 	movt	r6, #0
	si->connection_create_requests = 0;
    3300:	e3a08000 	mov	r8, #0
    3304:	e1a00006 	mov	r0, r6
    3308:	e3a09000 	mov	r9, #0
    330c:	ebfffffe 	bl	0 <_raw_spin_lock_bh>
    3310:	e59f30a8 	ldr	r3, [pc, #168]	@ 33c0 <sfe_ipv4_debug_dev_write+0xd8>
	si->packets_not_forwarded = 0;
    3314:	e2862902 	add	r2, r6, #32768	@ 0x8000
	si->connection_create_requests = 0;
    3318:	e3081040 	movw	r1, #32832	@ 0x8040
	si->packets_not_forwarded = 0;
    331c:	e3a05000 	mov	r5, #0
    3320:	e2820e25 	add	r0, r2, #592	@ 0x250
	si->connection_create_requests = 0;
    3324:	e18680f1 	strd	r8, [r6, r1]
	si->packets_not_forwarded = 0;
    3328:	e5825050 	str	r5, [r2, #80]	@ 0x50
	si->connection_create_requests = 0;
    332c:	e283e010 	add	lr, r3, #16
    3330:	e14380f8 	strd	r8, [r3, #-8]
    3334:	e3083030 	movw	r3, #32816	@ 0x8030
    3338:	e14e80f8 	strd	r8, [lr, #-8]
    333c:	e18680f3 	strd	r8, [r6, r3]
    3340:	e2823f4a 	add	r3, r2, #296	@ 0x128
		si->exception_events64[i] += si->exception_events[i];
    3344:	e5b31008 	ldr	r1, [r3, #8]!
    3348:	e5be2004 	ldr	r2, [lr, #4]!
    334c:	e593c004 	ldr	ip, [r3, #4]
    3350:	e0911002 	adds	r1, r1, r2
    3354:	e5831000 	str	r1, [r3]
    3358:	e2ac1000 	adc	r1, ip, #0
	for (i = 0; i < SFE_IPV4_EXCEPTION_EVENT_LAST; i++) {
    335c:	e1500003 	cmp	r0, r3
		si->exception_events64[i] += si->exception_events[i];
    3360:	e5831004 	str	r1, [r3, #4]
		si->exception_events[i] = 0;
    3364:	e58e5000 	str	r5, [lr]
	for (i = 0; i < SFE_IPV4_EXCEPTION_EVENT_LAST; i++) {
    3368:	1afffff5 	bne	3344 <sfe_ipv4_debug_dev_write+0x5c>
	si->packets_forwarded64 = 0;
    336c:	e59f3050 	ldr	r3, [pc, #80]	@ 33c4 <sfe_ipv4_debug_dev_write+0xdc>
    3370:	e3a01000 	mov	r1, #0
    3374:	e3a00000 	mov	r0, #0
    3378:	e3082120 	movw	r2, #33056	@ 0x8120
    337c:	e18600f2 	strd	r0, [r6, r2]
	si->connection_create_requests64 = 0;
    3380:	e14303f8 	strd	r0, [r3, #-56]	@ 0xffffffc8
	si->connection_destroy_requests64 = 0;
    3384:	e14302f8 	strd	r0, [r3, #-40]	@ 0xffffffd8
	si->connection_destroy_misses64 = 0;
    3388:	e14302f0 	strd	r0, [r3, #-32]	@ 0xffffffe0
	si->connection_match_hash_hits64 = 0;
    338c:	e14301f8 	strd	r0, [r3, #-24]	@ 0xffffffe8
	si->connection_flushes64 = 0;
    3390:	e14300f8 	strd	r0, [r3, #-8]
	si->packets_not_forwarded64 = 0;
    3394:	e1c300f8 	strd	r0, [r3, #8]
	si->connection_create_requests64 = 0;
    3398:	e30830f0 	movw	r3, #33008	@ 0x80f0
	si->connection_create_collisions64 = 0;
    339c:	e18600f3 	strd	r0, [r6, r3]
	si->connection_match_hash_hits64 = 0;
    33a0:	e3083110 	movw	r3, #33040	@ 0x8110
	si->connection_match_hash_reorders64 = 0;
    33a4:	e18600f3 	strd	r0, [r6, r3]
	raw_spin_unlock_bh(&lock->rlock);
    33a8:	e3000000 	movw	r0, #0
    33ac:	e3400000 	movt	r0, #0
    33b0:	ebfffffe 	bl	0 <_raw_spin_unlock_bh>
}
    33b4:	e1a00004 	mov	r0, r4
    33b8:	e24bd024 	sub	sp, fp, #36	@ 0x24
    33bc:	e89dabf0 	ldm	sp, {r4, r5, r6, r7, r8, r9, fp, sp, pc}
    33c0:	00018308 	.word	0x00018308
    33c4:	000183e8 	.word	0x000183e8

000033c8 <sfe_ipv4_debug_dev_read_connections_connection>:
{
    33c8:	e1a0c00d 	mov	ip, sp
    33cc:	e92ddff0 	push	{r4, r5, r6, r7, r8, r9, sl, fp, ip, lr, pc}
    33d0:	e24cb004 	sub	fp, ip, #4
    33d4:	e24dd0cc 	sub	sp, sp, #204	@ 0xcc
    33d8:	e1a05000 	mov	r5, r0
    33dc:	e59b6008 	ldr	r6, [fp, #8]
    33e0:	e50b3084 	str	r3, [fp, #-132]	@ 0xffffff7c
    33e4:	e50b1044 	str	r1, [fp, #-68]	@ 0xffffffbc
    33e8:	e50b2040 	str	r2, [fp, #-64]	@ 0xffffffc0
	raw_spin_lock_bh(&lock->rlock);
    33ec:	ebfffffe 	bl	0 <_raw_spin_lock_bh>
	for (c = si->all_connections_head; c; c = c->all_connections_next) {
    33f0:	e595400c 	ldr	r4, [r5, #12]
    33f4:	e3540000 	cmp	r4, #0
    33f8:	0a0000ac 	beq	36b0 <sfe_ipv4_debug_dev_read_connections_connection+0x2e8>
		if (c->debug_read_seq < si->debug_read_seq) {
    33fc:	e2853902 	add	r3, r5, #32768	@ 0x8000
    3400:	e5932260 	ldr	r2, [r3, #608]	@ 0x260
    3404:	ea000002 	b	3414 <sfe_ipv4_debug_dev_read_connections_connection+0x4c>
	for (c = si->all_connections_head; c; c = c->all_connections_next) {
    3408:	e5944040 	ldr	r4, [r4, #64]	@ 0x40
    340c:	e3540000 	cmp	r4, #0
    3410:	0a0000a6 	beq	36b0 <sfe_ipv4_debug_dev_read_connections_connection+0x2e8>
		if (c->debug_read_seq < si->debug_read_seq) {
    3414:	e594304c 	ldr	r3, [r4, #76]	@ 0x4c
    3418:	e1530002 	cmp	r3, r2
    341c:	2afffff9 	bcs	3408 <sfe_ipv4_debug_dev_read_connections_connection+0x40>
	protocol = c->protocol;
    3420:	e5943008 	ldr	r3, [r4, #8]
			c->debug_read_seq = si->debug_read_seq;
    3424:	e584204c 	str	r2, [r4, #76]	@ 0x4c
	src_ip_xlate = c->src_ip_xlate;
    3428:	e5946010 	ldr	r6, [r4, #16]
	original_cm = c->original_match;
    342c:	e5941024 	ldr	r1, [r4, #36]	@ 0x24
	reply_cm = c->reply_match;
    3430:	e594002c 	ldr	r0, [r4, #44]	@ 0x2c
	protocol = c->protocol;
    3434:	e50b3048 	str	r3, [fp, #-72]	@ 0xffffffb8
	src_ip = c->src_ip;
    3438:	e594300c 	ldr	r3, [r4, #12]
	src_port = c->src_port;
    343c:	e1d471bc 	ldrh	r7, [r4, #28]
	cm->rx_byte_count64 += cm->rx_byte_count;
    3440:	e591c04c 	ldr	ip, [r1, #76]	@ 0x4c
	cm->rx_packet_count64 += cm->rx_packet_count;
    3444:	e5912088 	ldr	r2, [r1, #136]	@ 0x88
    3448:	e591e08c 	ldr	lr, [r1, #140]	@ 0x8c
	src_ip = c->src_ip;
    344c:	e50b303c 	str	r3, [fp, #-60]	@ 0xffffffc4
	cm->rx_packet_count64 += cm->rx_packet_count;
    3450:	e5913048 	ldr	r3, [r1, #72]	@ 0x48
	src_port_xlate = c->src_port_xlate;
    3454:	e1d481be 	ldrh	r8, [r4, #30]
	src_ip_xlate = c->src_ip_xlate;
    3458:	e50b6038 	str	r6, [fp, #-56]	@ 0xffffffc8
	src_dev = c->original_dev;
    345c:	e5946028 	ldr	r6, [r4, #40]	@ 0x28
	cm->rx_packet_count64 += cm->rx_packet_count;
    3460:	e0922003 	adds	r2, r2, r3
	cm->rx_byte_count64 += cm->rx_byte_count;
    3464:	e5913090 	ldr	r3, [r1, #144]	@ 0x90
	cm->rx_packet_count64 += cm->rx_packet_count;
    3468:	e2aee000 	adc	lr, lr, #0
	src_port = c->src_port;
    346c:	e50b7050 	str	r7, [fp, #-80]	@ 0xffffffb0
	cm->rx_packet_count64 += cm->rx_packet_count;
    3470:	e5812088 	str	r2, [r1, #136]	@ 0x88
	cm->rx_packet_count = 0;
    3474:	e3a02000 	mov	r2, #0
	cm->rx_packet_count64 += cm->rx_packet_count;
    3478:	e581e08c 	str	lr, [r1, #140]	@ 0x8c
	cm->rx_byte_count64 += cm->rx_byte_count;
    347c:	e093300c 	adds	r3, r3, ip
    3480:	e591c094 	ldr	ip, [r1, #148]	@ 0x94
	src_port_xlate = c->src_port_xlate;
    3484:	e50b8054 	str	r8, [fp, #-84]	@ 0xffffffac
	src_dev = c->original_dev;
    3488:	e50b604c 	str	r6, [fp, #-76]	@ 0xffffffb4
	cm->rx_byte_count64 += cm->rx_byte_count;
    348c:	e5813090 	str	r3, [r1, #144]	@ 0x90
	src_dscp = original_cm->dscp >> SFE_IPV4_DSCP_SHIFT;
    3490:	e591306c 	ldr	r3, [r1, #108]	@ 0x6c
	cm->rx_byte_count64 += cm->rx_byte_count;
    3494:	e2acc000 	adc	ip, ip, #0
    3498:	e581c094 	str	ip, [r1, #148]	@ 0x94
	src_priority = original_cm->priority;
    349c:	e591c068 	ldr	ip, [r1, #104]	@ 0x68
	src_dscp = original_cm->dscp >> SFE_IPV4_DSCP_SHIFT;
    34a0:	e1a0e123 	lsr	lr, r3, #2
	cm->rx_packet_count = 0;
    34a4:	e3a03000 	mov	r3, #0
	src_dscp = original_cm->dscp >> SFE_IPV4_DSCP_SHIFT;
    34a8:	e50be05c 	str	lr, [fp, #-92]	@ 0xffffffa4
	src_priority = original_cm->priority;
    34ac:	e50bc058 	str	ip, [fp, #-88]	@ 0xffffffa8
	cm->rx_packet_count = 0;
    34b0:	e1c124f8 	strd	r2, [r1, #72]	@ 0x48
	cm->rx_packet_count64 += cm->rx_packet_count;
    34b4:	e590c048 	ldr	ip, [r0, #72]	@ 0x48
    34b8:	e590e088 	ldr	lr, [r0, #136]	@ 0x88
    34bc:	e09c700e 	adds	r7, ip, lr
    34c0:	e5807088 	str	r7, [r0, #136]	@ 0x88
	cm->rx_byte_count64 += cm->rx_byte_count;
    34c4:	e590e04c 	ldr	lr, [r0, #76]	@ 0x4c
	cm->rx_packet_count = 0;
    34c8:	e1c024f8 	strd	r2, [r0, #72]	@ 0x48
	dest_dscp = reply_cm->dscp >> SFE_IPV4_DSCP_SHIFT;
    34cc:	e590a06c 	ldr	sl, [r0, #108]	@ 0x6c
	cm->rx_packet_count64 += cm->rx_packet_count;
    34d0:	e590c08c 	ldr	ip, [r0, #140]	@ 0x8c
	cm->rx_byte_count64 += cm->rx_byte_count;
    34d4:	e1c089d0 	ldrd	r8, [r0, #144]	@ 0x90
	dest_dscp = reply_cm->dscp >> SFE_IPV4_DSCP_SHIFT;
    34d8:	e1a0a12a 	lsr	sl, sl, #2
	cm->rx_packet_count64 += cm->rx_packet_count;
    34dc:	e2ac6000 	adc	r6, ip, #0
	cm->rx_byte_count64 += cm->rx_byte_count;
    34e0:	e09e8008 	adds	r8, lr, r8
    34e4:	e2a99000 	adc	r9, r9, #0
	cm->rx_packet_count64 += cm->rx_packet_count;
    34e8:	e580608c 	str	r6, [r0, #140]	@ 0x8c
	cm->rx_byte_count64 += cm->rx_byte_count;
    34ec:	e1c089f0 	strd	r8, [r0, #144]	@ 0x90
	dest_ip = c->dest_ip;
    34f0:	e5943014 	ldr	r3, [r4, #20]
	dest_dev = c->reply_dev;
    34f4:	e5942030 	ldr	r2, [r4, #48]	@ 0x30
	dest_ip = c->dest_ip;
    34f8:	e50b3034 	str	r3, [fp, #-52]	@ 0xffffffcc
	dest_ip_xlate = c->dest_ip_xlate;
    34fc:	e5943018 	ldr	r3, [r4, #24]
	dest_dev = c->reply_dev;
    3500:	e50b207c 	str	r2, [fp, #-124]	@ 0xffffff84
	dest_port_xlate = c->dest_port_xlate;
    3504:	e1d422b2 	ldrh	r2, [r4, #34]	@ 0x22
	dest_ip_xlate = c->dest_ip_xlate;
    3508:	e50b3030 	str	r3, [fp, #-48]	@ 0xffffffd0
	dest_priority = reply_cm->priority;
    350c:	e5903068 	ldr	r3, [r0, #104]	@ 0x68
	dest_port = c->dest_port;
    3510:	e1d402b0 	ldrh	r0, [r4, #32]
	dest_priority = reply_cm->priority;
    3514:	e50b3080 	str	r3, [fp, #-128]	@ 0xffffff80
	dest_port_xlate = c->dest_port_xlate;
    3518:	e50b2074 	str	r2, [fp, #-116]	@ 0xffffff8c
	src_rx_packets = original_cm->rx_packet_count64;
    351c:	e1c128d8 	ldrd	r2, [r1, #136]	@ 0x88
	dest_port = c->dest_port;
    3520:	e50b0070 	str	r0, [fp, #-112]	@ 0xffffff90
	src_rx_bytes = original_cm->rx_byte_count64;
    3524:	e1c109d0 	ldrd	r0, [r1, #144]	@ 0x90
    3528:	e14b06fc 	strd	r0, [fp, #-108]	@ 0xffffff94
	src_rx_packets = original_cm->rx_packet_count64;
    352c:	e14b26f4 	strd	r2, [fp, #-100]	@ 0xffffff9c
	last_sync_jiffies = get_jiffies_64() - c->last_sync_jiffies;
    3530:	ebfffffe 	bl	0 <get_jiffies_64>
    3534:	e594e038 	ldr	lr, [r4, #56]	@ 0x38
    3538:	e1a0c000 	mov	ip, r0
	raw_spin_unlock_bh(&lock->rlock);
    353c:	e1a00005 	mov	r0, r5
    3540:	e05c500e 	subs	r5, ip, lr
    3544:	e594c03c 	ldr	ip, [r4, #60]	@ 0x3c
	mark = c->mark;
    3548:	e5944048 	ldr	r4, [r4, #72]	@ 0x48
	last_sync_jiffies = get_jiffies_64() - c->last_sync_jiffies;
    354c:	e0c1100c 	sbc	r1, r1, ip
    3550:	e50b1078 	str	r1, [fp, #-120]	@ 0xffffff88
    3554:	ebfffffe 	bl	0 <_raw_spin_unlock_bh>
	bytes_read = snprintf(msg, CHAR_DEV_MSG_SIZE, "\t\t<connection "
    3558:	e14b26d4 	ldrd	r2, [fp, #-100]	@ 0xffffff9c
    355c:	e1cd22f0 	strd	r2, [sp, #32]
    3560:	e14b06dc 	ldrd	r0, [fp, #-108]	@ 0xffffff94
    3564:	e1cd02f8 	strd	r0, [sp, #40]	@ 0x28
    3568:	e51b204c 	ldr	r2, [fp, #-76]	@ 0xffffffb4
    356c:	e58d2000 	str	r2, [sp]
    3570:	e51bc058 	ldr	ip, [fp, #-88]	@ 0xffffffa8
    3574:	e58dc014 	str	ip, [sp, #20]
    3578:	e51be05c 	ldr	lr, [fp, #-92]	@ 0xffffffa4
    357c:	e58de018 	str	lr, [sp, #24]
    3580:	e51b207c 	ldr	r2, [fp, #-124]	@ 0xffffff84
    3584:	e58d2030 	str	r2, [sp, #48]	@ 0x30
    3588:	e51b3080 	ldr	r3, [fp, #-128]	@ 0xffffff80
    358c:	e58d5060 	str	r5, [sp, #96]	@ 0x60
    3590:	e58d3044 	str	r3, [sp, #68]	@ 0x44
    3594:	e58da048 	str	sl, [sp, #72]	@ 0x48
    3598:	e58d7050 	str	r7, [sp, #80]	@ 0x50
    359c:	e58d6054 	str	r6, [sp, #84]	@ 0x54
    35a0:	e1cd85f8 	strd	r8, [sp, #88]	@ 0x58
    35a4:	e51b1078 	ldr	r1, [fp, #-120]	@ 0xffffff88
    35a8:	e58d1064 	str	r1, [sp, #100]	@ 0x64
    35ac:	e3a01c03 	mov	r1, #768	@ 0x300
    35b0:	e58d4068 	str	r4, [sp, #104]	@ 0x68
				ntohs(dest_port), ntohs(dest_port_xlate),
    35b4:	e51b0070 	ldr	r0, [fp, #-112]	@ 0xffffff90
				ntohs(src_port), ntohs(src_port_xlate),
    35b8:	e51b8054 	ldr	r8, [fp, #-84]	@ 0xffffffac
    35bc:	e51b7050 	ldr	r7, [fp, #-80]	@ 0xffffffb0
    35c0:	e6bf3fb8 	rev16	r3, r8
    35c4:	e6bf2fb7 	rev16	r2, r7
    35c8:	e6ff3073 	uxth	r3, r3
    35cc:	e6ff2072 	uxth	r2, r2
				ntohs(dest_port), ntohs(dest_port_xlate),
    35d0:	e6bf7fb0 	rev16	r7, r0
    35d4:	e6ff7077 	uxth	r7, r7
	bytes_read = snprintf(msg, CHAR_DEV_MSG_SIZE, "\t\t<connection "
    35d8:	e1cd20fc 	strd	r2, [sp, #12]
				ntohs(dest_port), ntohs(dest_port_xlate),
    35dc:	e51b2074 	ldr	r2, [fp, #-116]	@ 0xffffff8c
	bytes_read = snprintf(msg, CHAR_DEV_MSG_SIZE, "\t\t<connection "
    35e0:	e58d703c 	str	r7, [sp, #60]	@ 0x3c
				ntohs(dest_port), ntohs(dest_port_xlate),
    35e4:	e6bf6fb2 	rev16	r6, r2
	bytes_read = snprintf(msg, CHAR_DEV_MSG_SIZE, "\t\t<connection "
    35e8:	e24b2030 	sub	r2, fp, #48	@ 0x30
				ntohs(dest_port), ntohs(dest_port_xlate),
    35ec:	e6ff6076 	uxth	r6, r6
	bytes_read = snprintf(msg, CHAR_DEV_MSG_SIZE, "\t\t<connection "
    35f0:	e58d6040 	str	r6, [sp, #64]	@ 0x40
    35f4:	e51b3048 	ldr	r3, [fp, #-72]	@ 0xffffffb8
    35f8:	e58d2038 	str	r2, [sp, #56]	@ 0x38
    35fc:	e24b2034 	sub	r2, fp, #52	@ 0x34
    3600:	e58d2034 	str	r2, [sp, #52]	@ 0x34
    3604:	e24b2038 	sub	r2, fp, #56	@ 0x38
    3608:	e58d2008 	str	r2, [sp, #8]
    360c:	e24b203c 	sub	r2, fp, #60	@ 0x3c
    3610:	e58d2004 	str	r2, [sp, #4]
    3614:	e3002000 	movw	r2, #0
    3618:	e51b0040 	ldr	r0, [fp, #-64]	@ 0xffffffc0
    361c:	e3402000 	movt	r2, #0
    3620:	ebfffffe 	bl	0 <snprintf>
	if (copy_to_user(buffer + *total_read, msg, CHAR_DEV_MSG_SIZE)) {
    3624:	e51b2044 	ldr	r2, [fp, #-68]	@ 0xffffffbc
	bytes_read = snprintf(msg, CHAR_DEV_MSG_SIZE, "\t\t<connection "
    3628:	e1a04000 	mov	r4, r0
	if (copy_to_user(buffer + *total_read, msg, CHAR_DEV_MSG_SIZE)) {
    362c:	e59b3004 	ldr	r3, [fp, #4]
    3630:	e5933000 	ldr	r3, [r3]
    3634:	e0820003 	add	r0, r2, r3
    3638:	e3a03cfd 	mov	r3, #64768	@ 0xfd00
    363c:	e34b3eff 	movt	r3, #48895	@ 0xbeff
    3640:	e1500003 	cmp	r0, r3
    3644:	9a000002 	bls	3654 <sfe_ipv4_debug_dev_read_connections_connection+0x28c>
		return false;
    3648:	e3a00000 	mov	r0, #0
}
    364c:	e24bd028 	sub	sp, fp, #40	@ 0x28
    3650:	e89daff0 	ldm	sp, {r4, r5, r6, r7, r8, r9, sl, fp, sp, pc}
    3654:	ee1d3f70 	mrc	15, 0, r3, cr13, cr0, {3}
	asm(
    3658:	ee135f10 	mrc	15, 0, r5, cr3, cr0, {0}
	set_domain((old_domain & ~domain_mask(DOMAIN_USER)) |
    365c:	e3c5300c 	bic	r3, r5, #12
    3660:	e3833004 	orr	r3, r3, #4
	asm volatile(
    3664:	ee033f10 	mcr	15, 0, r3, cr3, cr0, {0}
	isb();
    3668:	f57ff06f 	isb	sy
	n = arm_copy_to_user(to, from, n);
    366c:	e51b1040 	ldr	r1, [fp, #-64]	@ 0xffffffc0
    3670:	e3a02c03 	mov	r2, #768	@ 0x300
    3674:	ebfffffe 	bl	0 <arm_copy_to_user>
	asm volatile(
    3678:	ee035f10 	mcr	15, 0, r5, cr3, cr0, {0}
	isb();
    367c:	f57ff06f 	isb	sy
	if (copy_to_user(buffer + *total_read, msg, CHAR_DEV_MSG_SIZE)) {
    3680:	e3500000 	cmp	r0, #0
    3684:	1affffef 	bne	3648 <sfe_ipv4_debug_dev_read_connections_connection+0x280>
	*length -= bytes_read;
    3688:	e51b2084 	ldr	r2, [fp, #-132]	@ 0xffffff7c
    368c:	e5923000 	ldr	r3, [r2]
    3690:	e0433004 	sub	r3, r3, r4
    3694:	e5823000 	str	r3, [r2]
	*total_read += bytes_read;
    3698:	e59b3004 	ldr	r3, [fp, #4]
    369c:	e59b2004 	ldr	r2, [fp, #4]
    36a0:	e5933000 	ldr	r3, [r3]
    36a4:	e0833004 	add	r3, r3, r4
    36a8:	e5823000 	str	r3, [r2]
	return true;
    36ac:	ea000004 	b	36c4 <sfe_ipv4_debug_dev_read_connections_connection+0x2fc>
    36b0:	e1a00005 	mov	r0, r5
    36b4:	ebfffffe 	bl	0 <_raw_spin_unlock_bh>
		ws->state++;
    36b8:	e5963000 	ldr	r3, [r6]
    36bc:	e2833001 	add	r3, r3, #1
    36c0:	e5863000 	str	r3, [r6]
		return true;
    36c4:	e3a00001 	mov	r0, #1
}
    36c8:	e24bd028 	sub	sp, fp, #40	@ 0x28
    36cc:	e89daff0 	ldm	sp, {r4, r5, r6, r7, r8, r9, sl, fp, sp, pc}

000036d0 <sfe_ipv6_debug_dev_read_exceptions_exception>:
{
    36d0:	e1a0c00d 	mov	ip, sp
    36d4:	e92ddbf0 	push	{r4, r5, r6, r7, r8, r9, fp, ip, lr, pc}
    36d8:	e24cb004 	sub	fp, ip, #4
    36dc:	e24dd008 	sub	sp, sp, #8
    36e0:	e59b5008 	ldr	r5, [fp, #8]
    36e4:	e1a04000 	mov	r4, r0
    36e8:	e1a06001 	mov	r6, r1
    36ec:	e1a07002 	mov	r7, r2
    36f0:	e1a08003 	mov	r8, r3
	raw_spin_lock_bh(&lock->rlock);
    36f4:	ebfffffe 	bl	0 <_raw_spin_lock_bh>
	raw_spin_unlock_bh(&lock->rlock);
    36f8:	e1a00004 	mov	r0, r4
	ct = si->exception_events64[ws->iter_exception];
    36fc:	e595c004 	ldr	ip, [r5, #4]
    3700:	e28cca01 	add	ip, ip, #4096	@ 0x1000
    3704:	e28cc027 	add	ip, ip, #39	@ 0x27
    3708:	e084318c 	add	r3, r4, ip, lsl #3
    370c:	e794918c 	ldr	r9, [r4, ip, lsl #3]
    3710:	e5934004 	ldr	r4, [r3, #4]
    3714:	ebfffffe 	bl	0 <_raw_spin_unlock_bh>
	if (ct) {
    3718:	e1993004 	orrs	r3, r9, r4
    371c:	1a00000d 	bne	3758 <sfe_ipv6_debug_dev_read_exceptions_exception+0x88>
	ws->iter_exception++;
    3720:	e5953004 	ldr	r3, [r5, #4]
    3724:	e2833001 	add	r3, r3, #1
	if (ws->iter_exception >= SFE_IPV6_EXCEPTION_EVENT_LAST) {
    3728:	e3530025 	cmp	r3, #37	@ 0x25
    372c:	ca000003 	bgt	3740 <sfe_ipv6_debug_dev_read_exceptions_exception+0x70>
	ws->iter_exception++;
    3730:	e5853004 	str	r3, [r5, #4]
	return true;
    3734:	e3a00001 	mov	r0, #1
}
    3738:	e24bd024 	sub	sp, fp, #36	@ 0x24
    373c:	e89dabf0 	ldm	sp, {r4, r5, r6, r7, r8, r9, fp, sp, pc}
		ws->state++;
    3740:	e5953000 	ldr	r3, [r5]
		ws->iter_exception = 0;
    3744:	e3a02000 	mov	r2, #0
    3748:	e5852004 	str	r2, [r5, #4]
		ws->state++;
    374c:	e2833001 	add	r3, r3, #1
    3750:	e5853000 	str	r3, [r5]
    3754:	eafffff6 	b	3734 <sfe_ipv6_debug_dev_read_exceptions_exception+0x64>
		bytes_read = snprintf(msg, CHAR_DEV_MSG_SIZE,
    3758:	e58d9000 	str	r9, [sp]
    375c:	e3003000 	movw	r3, #0
    3760:	e3002000 	movw	r2, #0
    3764:	e58d4004 	str	r4, [sp, #4]
    3768:	e5951004 	ldr	r1, [r5, #4]
    376c:	e3403000 	movt	r3, #0
    3770:	e3402000 	movt	r2, #0
    3774:	e1a00007 	mov	r0, r7
    3778:	e0833101 	add	r3, r3, r1, lsl #2
    377c:	e3a01c03 	mov	r1, #768	@ 0x300
    3780:	e59330b8 	ldr	r3, [r3, #184]	@ 0xb8
    3784:	ebfffffe 	bl	0 <snprintf>
		if (copy_to_user(buffer + *total_read, msg, CHAR_DEV_MSG_SIZE)) {
    3788:	e59b3004 	ldr	r3, [fp, #4]
		bytes_read = snprintf(msg, CHAR_DEV_MSG_SIZE,
    378c:	e1a04000 	mov	r4, r0
		if (copy_to_user(buffer + *total_read, msg, CHAR_DEV_MSG_SIZE)) {
    3790:	e5933000 	ldr	r3, [r3]
    3794:	e0860003 	add	r0, r6, r3
    3798:	e3a03cfd 	mov	r3, #64768	@ 0xfd00
    379c:	e34b3eff 	movt	r3, #48895	@ 0xbeff
    37a0:	e1500003 	cmp	r0, r3
    37a4:	8a000015 	bhi	3800 <sfe_ipv6_debug_dev_read_exceptions_exception+0x130>
    37a8:	ee1d3f70 	mrc	15, 0, r3, cr13, cr0, {3}
	asm(
    37ac:	ee136f10 	mrc	15, 0, r6, cr3, cr0, {0}
	set_domain((old_domain & ~domain_mask(DOMAIN_USER)) |
    37b0:	e3c6300c 	bic	r3, r6, #12
    37b4:	e3833004 	orr	r3, r3, #4
	asm volatile(
    37b8:	ee033f10 	mcr	15, 0, r3, cr3, cr0, {0}
	isb();
    37bc:	f57ff06f 	isb	sy
	n = arm_copy_to_user(to, from, n);
    37c0:	e3a02c03 	mov	r2, #768	@ 0x300
    37c4:	e1a01007 	mov	r1, r7
    37c8:	ebfffffe 	bl	0 <arm_copy_to_user>
	asm volatile(
    37cc:	ee036f10 	mcr	15, 0, r6, cr3, cr0, {0}
	isb();
    37d0:	f57ff06f 	isb	sy
    37d4:	e3500000 	cmp	r0, #0
    37d8:	1a000008 	bne	3800 <sfe_ipv6_debug_dev_read_exceptions_exception+0x130>
		*length -= bytes_read;
    37dc:	e5983000 	ldr	r3, [r8]
		*total_read += bytes_read;
    37e0:	e59b2004 	ldr	r2, [fp, #4]
		*length -= bytes_read;
    37e4:	e0433004 	sub	r3, r3, r4
    37e8:	e5883000 	str	r3, [r8]
		*total_read += bytes_read;
    37ec:	e59b3004 	ldr	r3, [fp, #4]
    37f0:	e5933000 	ldr	r3, [r3]
    37f4:	e0833004 	add	r3, r3, r4
    37f8:	e5823000 	str	r3, [r2]
    37fc:	eaffffc7 	b	3720 <sfe_ipv6_debug_dev_read_exceptions_exception+0x50>
			return false;
    3800:	e3a00000 	mov	r0, #0
}
    3804:	e24bd024 	sub	sp, fp, #36	@ 0x24
    3808:	e89dabf0 	ldm	sp, {r4, r5, r6, r7, r8, r9, fp, sp, pc}

0000380c <sfe_ipv4_debug_dev_read_exceptions_exception>:
{
    380c:	e1a0c00d 	mov	ip, sp
    3810:	e92ddbf0 	push	{r4, r5, r6, r7, r8, r9, fp, ip, lr, pc}
    3814:	e24cb004 	sub	fp, ip, #4
    3818:	e24dd008 	sub	sp, sp, #8
    381c:	e59b5008 	ldr	r5, [fp, #8]
    3820:	e1a04000 	mov	r4, r0
    3824:	e1a06001 	mov	r6, r1
    3828:	e1a07002 	mov	r7, r2
    382c:	e1a08003 	mov	r8, r3
	raw_spin_lock_bh(&lock->rlock);
    3830:	ebfffffe 	bl	0 <_raw_spin_lock_bh>
	raw_spin_unlock_bh(&lock->rlock);
    3834:	e1a00004 	mov	r0, r4
	ct = si->exception_events64[ws->iter_exception];
    3838:	e595c004 	ldr	ip, [r5, #4]
    383c:	e28cca01 	add	ip, ip, #4096	@ 0x1000
    3840:	e28cc026 	add	ip, ip, #38	@ 0x26
    3844:	e084318c 	add	r3, r4, ip, lsl #3
    3848:	e794918c 	ldr	r9, [r4, ip, lsl #3]
    384c:	e5934004 	ldr	r4, [r3, #4]
    3850:	ebfffffe 	bl	0 <_raw_spin_unlock_bh>
	if (ct) {
    3854:	e1993004 	orrs	r3, r9, r4
    3858:	1a00000d 	bne	3894 <sfe_ipv4_debug_dev_read_exceptions_exception+0x88>
	ws->iter_exception++;
    385c:	e5953004 	ldr	r3, [r5, #4]
    3860:	e2833001 	add	r3, r3, #1
	if (ws->iter_exception >= SFE_IPV4_EXCEPTION_EVENT_LAST) {
    3864:	e3530024 	cmp	r3, #36	@ 0x24
    3868:	ca000003 	bgt	387c <sfe_ipv4_debug_dev_read_exceptions_exception+0x70>
	ws->iter_exception++;
    386c:	e5853004 	str	r3, [r5, #4]
	return true;
    3870:	e3a00001 	mov	r0, #1
}
    3874:	e24bd024 	sub	sp, fp, #36	@ 0x24
    3878:	e89dabf0 	ldm	sp, {r4, r5, r6, r7, r8, r9, fp, sp, pc}
		ws->state++;
    387c:	e5953000 	ldr	r3, [r5]
		ws->iter_exception = 0;
    3880:	e3a02000 	mov	r2, #0
    3884:	e5852004 	str	r2, [r5, #4]
		ws->state++;
    3888:	e2833001 	add	r3, r3, #1
    388c:	e5853000 	str	r3, [r5]
    3890:	eafffff6 	b	3870 <sfe_ipv4_debug_dev_read_exceptions_exception+0x64>
		bytes_read = snprintf(msg, CHAR_DEV_MSG_SIZE,
    3894:	e58d9000 	str	r9, [sp]
    3898:	e3003000 	movw	r3, #0
    389c:	e3002000 	movw	r2, #0
    38a0:	e58d4004 	str	r4, [sp, #4]
    38a4:	e5951004 	ldr	r1, [r5, #4]
    38a8:	e3403000 	movt	r3, #0
    38ac:	e3402000 	movt	r2, #0
    38b0:	e1a00007 	mov	r0, r7
    38b4:	e0833101 	add	r3, r3, r1, lsl #2
    38b8:	e3a01c03 	mov	r1, #768	@ 0x300
    38bc:	e5933150 	ldr	r3, [r3, #336]	@ 0x150
    38c0:	ebfffffe 	bl	0 <snprintf>
		if (copy_to_user(buffer + *total_read, msg, CHAR_DEV_MSG_SIZE)) {
    38c4:	e59b3004 	ldr	r3, [fp, #4]
		bytes_read = snprintf(msg, CHAR_DEV_MSG_SIZE,
    38c8:	e1a04000 	mov	r4, r0
		if (copy_to_user(buffer + *total_read, msg, CHAR_DEV_MSG_SIZE)) {
    38cc:	e5933000 	ldr	r3, [r3]
    38d0:	e0860003 	add	r0, r6, r3
    38d4:	e3a03cfd 	mov	r3, #64768	@ 0xfd00
    38d8:	e34b3eff 	movt	r3, #48895	@ 0xbeff
    38dc:	e1500003 	cmp	r0, r3
    38e0:	8a000015 	bhi	393c <sfe_ipv4_debug_dev_read_exceptions_exception+0x130>
    38e4:	ee1d3f70 	mrc	15, 0, r3, cr13, cr0, {3}
	asm(
    38e8:	ee136f10 	mrc	15, 0, r6, cr3, cr0, {0}
	set_domain((old_domain & ~domain_mask(DOMAIN_USER)) |
    38ec:	e3c6300c 	bic	r3, r6, #12
    38f0:	e3833004 	orr	r3, r3, #4
	asm volatile(
    38f4:	ee033f10 	mcr	15, 0, r3, cr3, cr0, {0}
	isb();
    38f8:	f57ff06f 	isb	sy
	n = arm_copy_to_user(to, from, n);
    38fc:	e3a02c03 	mov	r2, #768	@ 0x300
    3900:	e1a01007 	mov	r1, r7
    3904:	ebfffffe 	bl	0 <arm_copy_to_user>
	asm volatile(
    3908:	ee036f10 	mcr	15, 0, r6, cr3, cr0, {0}
	isb();
    390c:	f57ff06f 	isb	sy
    3910:	e3500000 	cmp	r0, #0
    3914:	1a000008 	bne	393c <sfe_ipv4_debug_dev_read_exceptions_exception+0x130>
		*length -= bytes_read;
    3918:	e5983000 	ldr	r3, [r8]
		*total_read += bytes_read;
    391c:	e59b2004 	ldr	r2, [fp, #4]
		*length -= bytes_read;
    3920:	e0433004 	sub	r3, r3, r4
    3924:	e5883000 	str	r3, [r8]
		*total_read += bytes_read;
    3928:	e59b3004 	ldr	r3, [fp, #4]
    392c:	e5933000 	ldr	r3, [r3]
    3930:	e0833004 	add	r3, r3, r4
    3934:	e5823000 	str	r3, [r2]
    3938:	eaffffc7 	b	385c <sfe_ipv4_debug_dev_read_exceptions_exception+0x50>
			return false;
    393c:	e3a00000 	mov	r0, #0
}
    3940:	e24bd024 	sub	sp, fp, #36	@ 0x24
    3944:	e89dabf0 	ldm	sp, {r4, r5, r6, r7, r8, r9, fp, sp, pc}

00003948 <fast_classifier_find_conn>:
{
    3948:	e1a0c00d 	mov	ip, sp
    394c:	e92dd9f0 	push	{r4, r5, r6, r7, r8, fp, ip, lr, pc}
    3950:	e24cb004 	sub	fp, ip, #4
    3954:	e5dbc008 	ldrb	ip, [fp, #8]
    3958:	e1a06000 	mov	r6, r0
	return hash ^ (sport | (dport << 16));
    395c:	e1820803 	orr	r0, r2, r3, lsl #16
	u32 hash = saddr->ip ^ daddr->ip;
    3960:	e5915000 	ldr	r5, [r1]
    3964:	e5964000 	ldr	r4, [r6]
{
    3968:	e5dbe004 	ldrb	lr, [fp, #4]
	if (is_v4)
    396c:	e35c0000 	cmp	ip, #0
    3970:	0a000024 	beq	3a08 <fast_classifier_find_conn+0xc0>
	return hash ^ (sport | (dport << 16));
    3974:	e0241000 	eor	r1, r4, r0
#ifndef HAVE_ARCH__HASH_32
#define __hash_32 __hash_32_generic
#endif
static inline u32 __hash_32_generic(u32 val)
{
	return val * GOLDEN_RATIO_32;
    3978:	e3080647 	movw	r0, #34375	@ 0x8647
    397c:	e34601c8 	movt	r0, #25032	@ 0x61c8
    3980:	e0211005 	eor	r1, r1, r5
    3984:	e0010190 	mul	r1, r0, r1
	sfe_hash_for_each_possible(fc_conn_ht, conn, node, hl, key) {
    3988:	e3000000 	movw	r0, #0
    398c:	e3400000 	movt	r0, #0
}

static inline u32 hash_32(u32 val, unsigned int bits)
{
	/* High bits are more random, so use them. */
	return __hash_32(val) >> (32 - bits);
    3990:	e1a019a1 	lsr	r1, r1, #19
    3994:	e7900101 	ldr	r0, [r0, r1, lsl #2]
    3998:	e3500000 	cmp	r0, #0
    399c:	1a000007 	bne	39c0 <fast_classifier_find_conn+0x78>
}
    39a0:	e24bd020 	sub	sp, fp, #32
    39a4:	e89da9f0 	ldm	sp, {r4, r5, r6, r7, r8, fp, sp, pc}
		if (p_sic->protocol == proto &&
    39a8:	e1d1c5b8 	ldrh	ip, [r1, #88]	@ 0x58
    39ac:	e15c0002 	cmp	ip, r2
    39b0:	0a00000a 	beq	39e0 <fast_classifier_find_conn+0x98>
	sfe_hash_for_each_possible(fc_conn_ht, conn, node, hl, key) {
    39b4:	e5900000 	ldr	r0, [r0]
    39b8:	e3500000 	cmp	r0, #0
    39bc:	0afffff7 	beq	39a0 <fast_classifier_find_conn+0x58>
		if (conn->is_v4 != is_v4) {
    39c0:	e5d0101c 	ldrb	r1, [r0, #28]
    39c4:	e3510000 	cmp	r1, #0
    39c8:	0afffff9 	beq	39b4 <fast_classifier_find_conn+0x6c>
		p_sic = conn->sic;
    39cc:	e5901008 	ldr	r1, [r0, #8]
		if (p_sic->protocol == proto &&
    39d0:	e591c000 	ldr	ip, [r1]
    39d4:	e15c000e 	cmp	ip, lr
    39d8:	1afffff5 	bne	39b4 <fast_classifier_find_conn+0x6c>
    39dc:	eafffff1 	b	39a8 <fast_classifier_find_conn+0x60>
		    p_sic->src_port == sport &&
    39e0:	e1d1c5bc 	ldrh	ip, [r1, #92]	@ 0x5c
    39e4:	e15c0003 	cmp	ip, r3
    39e8:	1afffff1 	bne	39b4 <fast_classifier_find_conn+0x6c>
		    p_sic->dest_port == dport &&
    39ec:	e591c018 	ldr	ip, [r1, #24]
    39f0:	e154000c 	cmp	r4, ip
    39f4:	1affffee 	bne	39b4 <fast_classifier_find_conn+0x6c>
		    sfe_addr_equal(&p_sic->src_ip, saddr, is_v4) &&
    39f8:	e5911038 	ldr	r1, [r1, #56]	@ 0x38
    39fc:	e1550001 	cmp	r5, r1
    3a00:	1affffeb 	bne	39b4 <fast_classifier_find_conn+0x6c>
    3a04:	eaffffe5 	b	39a0 <fast_classifier_find_conn+0x58>
	return hash ^ (sport | (dport << 16));
    3a08:	e591c004 	ldr	ip, [r1, #4]
    3a0c:	e5917008 	ldr	r7, [r1, #8]
    3a10:	e02cc005 	eor	ip, ip, r5
    3a14:	e02cc007 	eor	ip, ip, r7
    3a18:	e591700c 	ldr	r7, [r1, #12]
    3a1c:	e02cc007 	eor	ip, ip, r7
    3a20:	e02cc004 	eor	ip, ip, r4
    3a24:	e02cc000 	eor	ip, ip, r0
    3a28:	e5960004 	ldr	r0, [r6, #4]
    3a2c:	e02cc000 	eor	ip, ip, r0
    3a30:	e5960008 	ldr	r0, [r6, #8]
    3a34:	e02cc000 	eor	ip, ip, r0
    3a38:	e596000c 	ldr	r0, [r6, #12]
    3a3c:	e02cc000 	eor	ip, ip, r0
	return val * GOLDEN_RATIO_32;
    3a40:	e3080647 	movw	r0, #34375	@ 0x8647
    3a44:	e34601c8 	movt	r0, #25032	@ 0x61c8
    3a48:	e00c0c90 	mul	ip, r0, ip
	sfe_hash_for_each_possible(fc_conn_ht, conn, node, hl, key) {
    3a4c:	e3000000 	movw	r0, #0
    3a50:	e3400000 	movt	r0, #0
	return __hash_32(val) >> (32 - bits);
    3a54:	e1a0c9ac 	lsr	ip, ip, #19
    3a58:	e790010c 	ldr	r0, [r0, ip, lsl #2]
    3a5c:	e3500000 	cmp	r0, #0
    3a60:	0affffce 	beq	39a0 <fast_classifier_find_conn+0x58>
		if (conn->is_v4 != is_v4) {
    3a64:	e5d0c01c 	ldrb	ip, [r0, #28]
    3a68:	e35c0000 	cmp	ip, #0
    3a6c:	0a000005 	beq	3a88 <fast_classifier_find_conn+0x140>
	sfe_hash_for_each_possible(fc_conn_ht, conn, node, hl, key) {
    3a70:	e5900000 	ldr	r0, [r0]
    3a74:	e3500000 	cmp	r0, #0
    3a78:	0affffc8 	beq	39a0 <fast_classifier_find_conn+0x58>
		if (conn->is_v4 != is_v4) {
    3a7c:	e5d0c01c 	ldrb	ip, [r0, #28]
    3a80:	e35c0000 	cmp	ip, #0
    3a84:	1afffff9 	bne	3a70 <fast_classifier_find_conn+0x128>
		p_sic = conn->sic;
    3a88:	e590c008 	ldr	ip, [r0, #8]
		if (p_sic->protocol == proto &&
    3a8c:	e59c7000 	ldr	r7, [ip]
    3a90:	e15e0007 	cmp	lr, r7
    3a94:	1afffff5 	bne	3a70 <fast_classifier_find_conn+0x128>
    3a98:	e1dc75b8 	ldrh	r7, [ip, #88]	@ 0x58
    3a9c:	e1570002 	cmp	r7, r2
    3aa0:	1afffff2 	bne	3a70 <fast_classifier_find_conn+0x128>
		    p_sic->src_port == sport &&
    3aa4:	e1dc75bc 	ldrh	r7, [ip, #92]	@ 0x5c
    3aa8:	e1570003 	cmp	r7, r3
    3aac:	1affffef 	bne	3a70 <fast_classifier_find_conn+0x128>
    3ab0:	e59c7018 	ldr	r7, [ip, #24]
    3ab4:	e1540007 	cmp	r4, r7
    3ab8:	1affffec 	bne	3a70 <fast_classifier_find_conn+0x128>
	return a->addr[0] == b->addr[0] &&
    3abc:	e5967004 	ldr	r7, [r6, #4]
    3ac0:	e59c801c 	ldr	r8, [ip, #28]
    3ac4:	e1580007 	cmp	r8, r7
    3ac8:	1affffe8 	bne	3a70 <fast_classifier_find_conn+0x128>
	       a->addr[1] == b->addr[1] &&
    3acc:	e5967008 	ldr	r7, [r6, #8]
    3ad0:	e59c8020 	ldr	r8, [ip, #32]
    3ad4:	e1580007 	cmp	r8, r7
    3ad8:	1affffe4 	bne	3a70 <fast_classifier_find_conn+0x128>
	       a->addr[2] == b->addr[2] &&
    3adc:	e596700c 	ldr	r7, [r6, #12]
    3ae0:	e59c8024 	ldr	r8, [ip, #36]	@ 0x24
    3ae4:	e1580007 	cmp	r8, r7
    3ae8:	1affffe0 	bne	3a70 <fast_classifier_find_conn+0x128>
    3aec:	e59c7038 	ldr	r7, [ip, #56]	@ 0x38
    3af0:	e1550007 	cmp	r5, r7
    3af4:	1affffdd 	bne	3a70 <fast_classifier_find_conn+0x128>
	return a->addr[0] == b->addr[0] &&
    3af8:	e5918004 	ldr	r8, [r1, #4]
    3afc:	e59c703c 	ldr	r7, [ip, #60]	@ 0x3c
    3b00:	e1580007 	cmp	r8, r7
    3b04:	1affffd9 	bne	3a70 <fast_classifier_find_conn+0x128>
	       a->addr[1] == b->addr[1] &&
    3b08:	e5917008 	ldr	r7, [r1, #8]
    3b0c:	e59c8040 	ldr	r8, [ip, #64]	@ 0x40
    3b10:	e1580007 	cmp	r8, r7
    3b14:	1affffd5 	bne	3a70 <fast_classifier_find_conn+0x128>
	       a->addr[2] == b->addr[2] &&
    3b18:	e59c7044 	ldr	r7, [ip, #68]	@ 0x44
    3b1c:	e591c00c 	ldr	ip, [r1, #12]
    3b20:	e157000c 	cmp	r7, ip
    3b24:	1affffd1 	bne	3a70 <fast_classifier_find_conn+0x128>
    3b28:	eaffff9c 	b	39a0 <fast_classifier_find_conn+0x58>

00003b2c <fast_classifier_inet_event>:
{
    3b2c:	e1a0c00d 	mov	ip, sp
    3b30:	e92dd8f0 	push	{r4, r5, r6, r7, fp, ip, lr, pc}
    3b34:	e24cb004 	sub	fp, ip, #4
	struct net_device *dev = ((struct in_ifaddr *)ptr)->ifa_dev->dev;
    3b38:	e592300c 	ldr	r3, [r2, #12]
    3b3c:	e5935000 	ldr	r5, [r3]
	if (dev && (event == NETDEV_DOWN)) {
    3b40:	e2553000 	subs	r3, r5, #0
    3b44:	13a03001 	movne	r3, #1
    3b48:	e3510002 	cmp	r1, #2
    3b4c:	13a03000 	movne	r3, #0
    3b50:	e3530000 	cmp	r3, #0
    3b54:	1a000002 	bne	3b64 <fast_classifier_inet_event+0x38>
}
    3b58:	e3a00000 	mov	r0, #0
    3b5c:	e24bd01c 	sub	sp, fp, #28
    3b60:	e89da8f0 	ldm	sp, {r4, r5, r6, r7, fp, sp, pc}
    3b64:	e3006000 	movw	r6, #0
    3b68:	e3406000 	movt	r6, #0
	raw_spin_lock_bh(&lock->rlock);
    3b6c:	e1a00006 	mov	r0, r6
    3b70:	ebfffffe 	bl	0 <_raw_spin_lock_bh>
	for (c = si->all_connections_head; c; c = c->all_connections_next) {
    3b74:	e596400c 	ldr	r4, [r6, #12]
    3b78:	e3540000 	cmp	r4, #0
    3b7c:	1a000006 	bne	3b9c <fast_classifier_inet_event+0x70>
    3b80:	ea00000f 	b	3bc4 <fast_classifier_inet_event+0x98>
		    || (dev == c->reply_dev)) {
    3b84:	e5943030 	ldr	r3, [r4, #48]	@ 0x30
    3b88:	e1550003 	cmp	r5, r3
    3b8c:	0a000005 	beq	3ba8 <fast_classifier_inet_event+0x7c>
	for (c = si->all_connections_head; c; c = c->all_connections_next) {
    3b90:	e5944040 	ldr	r4, [r4, #64]	@ 0x40
    3b94:	e3540000 	cmp	r4, #0
    3b98:	0a000009 	beq	3bc4 <fast_classifier_inet_event+0x98>
		    || (dev == c->original_dev)
    3b9c:	e5943028 	ldr	r3, [r4, #40]	@ 0x28
    3ba0:	e1550003 	cmp	r5, r3
    3ba4:	1afffff6 	bne	3b84 <fast_classifier_inet_event+0x58>
		sfe_ipv4_remove_sfe_ipv4_connection(si, c);
    3ba8:	e1a00004 	mov	r0, r4
    3bac:	ebfff9a9 	bl	2258 <sfe_ipv4_remove_sfe_ipv4_connection.constprop.0>
	raw_spin_unlock_bh(&lock->rlock);
    3bb0:	e1a00006 	mov	r0, r6
    3bb4:	ebfffffe 	bl	0 <_raw_spin_unlock_bh>
		sfe_ipv4_flush_sfe_ipv4_connection(si, c, SFE_SYNC_REASON_DESTROY);
    3bb8:	e1a00004 	mov	r0, r4
    3bbc:	ebfff844 	bl	1cd4 <sfe_ipv4_flush_sfe_ipv4_connection.constprop.0>
		goto another_round;
    3bc0:	eaffffe9 	b	3b6c <fast_classifier_inet_event+0x40>
    3bc4:	e3000000 	movw	r0, #0
    3bc8:	e3400000 	movt	r0, #0
    3bcc:	ebfffffe 	bl	0 <_raw_spin_unlock_bh>
    3bd0:	e3a00000 	mov	r0, #0
    3bd4:	e24bd01c 	sub	sp, fp, #28
    3bd8:	e89da8f0 	ldm	sp, {r4, r5, r6, r7, fp, sp, pc}

00003bdc <sfe_ipv6_debug_dev_read_stats>:
{
    3bdc:	e1a0c00d 	mov	ip, sp
    3be0:	e92ddff0 	push	{r4, r5, r6, r7, r8, r9, sl, fp, ip, lr, pc}
    3be4:	e24cb004 	sub	fp, ip, #4
    3be8:	e24dd09c 	sub	sp, sp, #156	@ 0x9c
    3bec:	e1a04000 	mov	r4, r0
    3bf0:	e50b3078 	str	r3, [fp, #-120]	@ 0xffffff88
	si->packets_forwarded64 += si->packets_forwarded;
    3bf4:	e3088130 	movw	r8, #33072	@ 0x8130
{
    3bf8:	e50b103c 	str	r1, [fp, #-60]	@ 0xffffffc4
	si->connection_create_requests = 0;
    3bfc:	e3a06000 	mov	r6, #0
    3c00:	e3a07000 	mov	r7, #0
{
    3c04:	e50b2030 	str	r2, [fp, #-48]	@ 0xffffffd0
	raw_spin_lock_bh(&lock->rlock);
    3c08:	ebfffffe 	bl	0 <_raw_spin_lock_bh>
	si->connection_create_requests64 += si->connection_create_requests;
    3c0c:	e2840902 	add	r0, r4, #32768	@ 0x8000
    3c10:	e30830f0 	movw	r3, #33008	@ 0x80f0
    3c14:	e794c003 	ldr	ip, [r4, r3]
    3c18:	e0841003 	add	r1, r4, r3
	si->connection_create_requests = 0;
    3c1c:	e2805050 	add	r5, r0, #80	@ 0x50
	si->connection_create_requests64 += si->connection_create_requests;
    3c20:	e5902030 	ldr	r2, [r0, #48]	@ 0x30
    3c24:	e092200c 	adds	r2, r2, ip
    3c28:	e1a0c002 	mov	ip, r2
    3c2c:	e5912004 	ldr	r2, [r1, #4]
    3c30:	e784c003 	str	ip, [r4, r3]
    3c34:	e50bc040 	str	ip, [fp, #-64]	@ 0xffffffc0
    3c38:	e2a23000 	adc	r3, r2, #0
    3c3c:	e50b3044 	str	r3, [fp, #-68]	@ 0xffffffbc
    3c40:	e5813004 	str	r3, [r1, #4]
	si->connection_create_collisions64 += si->connection_create_collisions;
    3c44:	e2843c81 	add	r3, r4, #33024	@ 0x8100
    3c48:	e5902034 	ldr	r2, [r0, #52]	@ 0x34
    3c4c:	e5131008 	ldr	r1, [r3, #-8]
    3c50:	e0922001 	adds	r2, r2, r1
	si->connection_destroy_requests64 += si->connection_destroy_requests;
    3c54:	e5931000 	ldr	r1, [r3]
	si->connection_create_collisions64 += si->connection_create_collisions;
    3c58:	e50b2048 	str	r2, [fp, #-72]	@ 0xffffffb8
    3c5c:	e5032008 	str	r2, [r3, #-8]
    3c60:	e5132004 	ldr	r2, [r3, #-4]
    3c64:	e2a22000 	adc	r2, r2, #0
    3c68:	e50b204c 	str	r2, [fp, #-76]	@ 0xffffffb4
    3c6c:	e5032004 	str	r2, [r3, #-4]
	si->connection_destroy_requests64 += si->connection_destroy_requests;
    3c70:	e5902038 	ldr	r2, [r0, #56]	@ 0x38
    3c74:	e0922001 	adds	r2, r2, r1
	si->connection_destroy_misses64 += si->connection_destroy_misses;
    3c78:	e3081110 	movw	r1, #33040	@ 0x8110
	si->connection_destroy_requests64 += si->connection_destroy_requests;
    3c7c:	e50b2050 	str	r2, [fp, #-80]	@ 0xffffffb0
    3c80:	e5832000 	str	r2, [r3]
    3c84:	e5932004 	ldr	r2, [r3, #4]
    3c88:	e2a22000 	adc	r2, r2, #0
    3c8c:	e5832004 	str	r2, [r3, #4]
	si->connection_destroy_misses64 += si->connection_destroy_misses;
    3c90:	e0843001 	add	r3, r4, r1
    3c94:	e590c03c 	ldr	ip, [r0, #60]	@ 0x3c
    3c98:	e513e008 	ldr	lr, [r3, #-8]
	si->connection_destroy_requests64 += si->connection_destroy_requests;
    3c9c:	e50b2054 	str	r2, [fp, #-84]	@ 0xffffffac
	si->connection_match_hash_reorders64 += si->connection_match_hash_reorders;
    3ca0:	e3082120 	movw	r2, #33056	@ 0x8120
	si->connection_destroy_misses64 += si->connection_destroy_misses;
    3ca4:	e09cc00e 	adds	ip, ip, lr
    3ca8:	e50bc058 	str	ip, [fp, #-88]	@ 0xffffffa8
    3cac:	e503c008 	str	ip, [r3, #-8]
    3cb0:	e513c004 	ldr	ip, [r3, #-4]
    3cb4:	e2acc000 	adc	ip, ip, #0
    3cb8:	e50bc05c 	str	ip, [fp, #-92]	@ 0xffffffa4
    3cbc:	e503c004 	str	ip, [r3, #-4]
	si->connection_match_hash_hits64 += si->connection_match_hash_hits;
    3cc0:	e794e001 	ldr	lr, [r4, r1]
    3cc4:	e590c040 	ldr	ip, [r0, #64]	@ 0x40
    3cc8:	e09cc00e 	adds	ip, ip, lr
    3ccc:	e1a0e00c 	mov	lr, ip
    3cd0:	e593c004 	ldr	ip, [r3, #4]
    3cd4:	e50be060 	str	lr, [fp, #-96]	@ 0xffffffa0
    3cd8:	e784e001 	str	lr, [r4, r1]
	si->packets_forwarded64 += si->packets_forwarded;
    3cdc:	e084e008 	add	lr, r4, r8
	si->connection_match_hash_hits64 += si->connection_match_hash_hits;
    3ce0:	e2ac1000 	adc	r1, ip, #0
    3ce4:	e5831004 	str	r1, [r3, #4]
	si->connection_match_hash_reorders64 += si->connection_match_hash_reorders;
    3ce8:	e0843002 	add	r3, r4, r2
    3cec:	e513c008 	ldr	ip, [r3, #-8]
	si->connection_match_hash_hits64 += si->connection_match_hash_hits;
    3cf0:	e50b1064 	str	r1, [fp, #-100]	@ 0xffffff9c
	si->connection_match_hash_reorders64 += si->connection_match_hash_reorders;
    3cf4:	e5901044 	ldr	r1, [r0, #68]	@ 0x44
    3cf8:	e50b5034 	str	r5, [fp, #-52]	@ 0xffffffcc
    3cfc:	e50be038 	str	lr, [fp, #-56]	@ 0xffffffc8
    3d00:	e091a00c 	adds	sl, r1, ip
    3d04:	e5131004 	ldr	r1, [r3, #-4]
    3d08:	e503a008 	str	sl, [r3, #-8]
    3d0c:	e2a19000 	adc	r9, r1, #0
    3d10:	e5039004 	str	r9, [r3, #-4]
	si->connection_flushes64 += si->connection_flushes;
    3d14:	e794c002 	ldr	ip, [r4, r2]
    3d18:	e5901048 	ldr	r1, [r0, #72]	@ 0x48
    3d1c:	e091100c 	adds	r1, r1, ip
    3d20:	e1a0c001 	mov	ip, r1
    3d24:	e5931004 	ldr	r1, [r3, #4]
    3d28:	e784c002 	str	ip, [r4, r2]
    3d2c:	e50bc068 	str	ip, [fp, #-104]	@ 0xffffff98
	si->connection_create_requests64 += si->connection_create_requests;
    3d30:	e3a0c000 	mov	ip, #0
	si->connection_flushes64 += si->connection_flushes;
    3d34:	e2a12000 	adc	r2, r1, #0
    3d38:	e2841c82 	add	r1, r4, #33280	@ 0x8200
    3d3c:	e2811060 	add	r1, r1, #96	@ 0x60
    3d40:	e50b206c 	str	r2, [fp, #-108]	@ 0xffffff94
    3d44:	e5832004 	str	r2, [r3, #4]
	si->packets_forwarded64 += si->packets_forwarded;
    3d48:	e51e2008 	ldr	r2, [lr, #-8]
    3d4c:	e590304c 	ldr	r3, [r0, #76]	@ 0x4c
    3d50:	e0933002 	adds	r3, r3, r2
	si->connection_create_requests = 0;
    3d54:	e3082030 	movw	r2, #32816	@ 0x8030
	si->packets_forwarded64 += si->packets_forwarded;
    3d58:	e50b3070 	str	r3, [fp, #-112]	@ 0xffffff90
    3d5c:	e50e3008 	str	r3, [lr, #-8]
    3d60:	e51e3004 	ldr	r3, [lr, #-4]
    3d64:	e2a33000 	adc	r3, r3, #0
    3d68:	e50b3074 	str	r3, [fp, #-116]	@ 0xffffff8c
    3d6c:	e50e3004 	str	r3, [lr, #-4]
	si->connection_create_requests = 0;
    3d70:	e2843902 	add	r3, r4, #32768	@ 0x8000
    3d74:	e2833040 	add	r3, r3, #64	@ 0x40
    3d78:	e18460f2 	strd	r6, [r4, r2]
    3d7c:	e14360f8 	strd	r6, [r3, #-8]
    3d80:	e3083040 	movw	r3, #32832	@ 0x8040
    3d84:	e18460f3 	strd	r6, [r4, r3]
	si->packets_not_forwarded = 0;
    3d88:	e1a0300e 	mov	r3, lr
	si->connection_create_requests = 0;
    3d8c:	e14560f8 	strd	r6, [r5, #-8]
	si->packets_not_forwarded64 += si->packets_not_forwarded;
    3d90:	e7946008 	ldr	r6, [r4, r8]
    3d94:	e5905050 	ldr	r5, [r0, #80]	@ 0x50
    3d98:	e0955006 	adds	r5, r5, r6
    3d9c:	e59e6004 	ldr	r6, [lr, #4]
    3da0:	e7845008 	str	r5, [r4, r8]
    3da4:	e2a66000 	adc	r6, r6, #0
    3da8:	e58e6004 	str	r6, [lr, #4]
	si->packets_not_forwarded = 0;
    3dac:	e580c050 	str	ip, [r0, #80]	@ 0x50
    3db0:	e51b2034 	ldr	r2, [fp, #-52]	@ 0xffffffcc
		si->exception_events64[i] += si->exception_events[i];
    3db4:	e5b2e004 	ldr	lr, [r2, #4]!
    3db8:	e5b30008 	ldr	r0, [r3, #8]!
    3dbc:	e090000e 	adds	r0, r0, lr
    3dc0:	e5830000 	str	r0, [r3]
    3dc4:	e5930004 	ldr	r0, [r3, #4]
    3dc8:	e2a00000 	adc	r0, r0, #0
	for (i = 0; i < SFE_IPV6_EXCEPTION_EVENT_LAST; i++) {
    3dcc:	e1510003 	cmp	r1, r3
		si->exception_events64[i] += si->exception_events[i];
    3dd0:	e5830004 	str	r0, [r3, #4]
		si->exception_events[i] = 0;
    3dd4:	e582c000 	str	ip, [r2]
	for (i = 0; i < SFE_IPV6_EXCEPTION_EVENT_LAST; i++) {
    3dd8:	1afffff5 	bne	3db4 <sfe_ipv6_debug_dev_read_stats+0x1d8>
	raw_spin_unlock_bh(&lock->rlock);
    3ddc:	e1a00004 	mov	r0, r4
	num_connections = si->num_connections;
    3de0:	e5944014 	ldr	r4, [r4, #20]
    3de4:	ebfffffe 	bl	0 <_raw_spin_unlock_bh>
	bytes_read = snprintf(msg, CHAR_DEV_MSG_SIZE, "\t<stats "
    3de8:	e51b3070 	ldr	r3, [fp, #-112]	@ 0xffffff90
    3dec:	e3002000 	movw	r2, #0
    3df0:	e3a01c03 	mov	r1, #768	@ 0x300
    3df4:	e3402000 	movt	r2, #0
    3df8:	e58d3000 	str	r3, [sp]
    3dfc:	e51b3074 	ldr	r3, [fp, #-116]	@ 0xffffff8c
    3e00:	e98d0068 	stmib	sp, {r3, r5, r6}
    3e04:	e51b3040 	ldr	r3, [fp, #-64]	@ 0xffffffc0
    3e08:	e58d3010 	str	r3, [sp, #16]
    3e0c:	e51b3044 	ldr	r3, [fp, #-68]	@ 0xffffffbc
    3e10:	e58d3014 	str	r3, [sp, #20]
    3e14:	e51b3048 	ldr	r3, [fp, #-72]	@ 0xffffffb8
    3e18:	e58d3018 	str	r3, [sp, #24]
    3e1c:	e51b304c 	ldr	r3, [fp, #-76]	@ 0xffffffb4
    3e20:	e58d301c 	str	r3, [sp, #28]
    3e24:	e51b3050 	ldr	r3, [fp, #-80]	@ 0xffffffb0
    3e28:	e58d3020 	str	r3, [sp, #32]
    3e2c:	e51b3054 	ldr	r3, [fp, #-84]	@ 0xffffffac
    3e30:	e58d3024 	str	r3, [sp, #36]	@ 0x24
    3e34:	e51b3058 	ldr	r3, [fp, #-88]	@ 0xffffffa8
    3e38:	e58d3028 	str	r3, [sp, #40]	@ 0x28
    3e3c:	e51b305c 	ldr	r3, [fp, #-92]	@ 0xffffffa4
    3e40:	e58d302c 	str	r3, [sp, #44]	@ 0x2c
    3e44:	e51b3068 	ldr	r3, [fp, #-104]	@ 0xffffff98
    3e48:	e58d3030 	str	r3, [sp, #48]	@ 0x30
    3e4c:	e51b306c 	ldr	r3, [fp, #-108]	@ 0xffffff94
    3e50:	e58d3034 	str	r3, [sp, #52]	@ 0x34
    3e54:	e51b3060 	ldr	r3, [fp, #-96]	@ 0xffffffa0
    3e58:	e58d3038 	str	r3, [sp, #56]	@ 0x38
    3e5c:	e51b3064 	ldr	r3, [fp, #-100]	@ 0xffffff9c
    3e60:	e58d303c 	str	r3, [sp, #60]	@ 0x3c
    3e64:	e1a03004 	mov	r3, r4
    3e68:	e58da040 	str	sl, [sp, #64]	@ 0x40
    3e6c:	e58d9044 	str	r9, [sp, #68]	@ 0x44
    3e70:	e51b0030 	ldr	r0, [fp, #-48]	@ 0xffffffd0
    3e74:	ebfffffe 	bl	0 <snprintf>
	if (copy_to_user(buffer + *total_read, msg, CHAR_DEV_MSG_SIZE)) {
    3e78:	e51b203c 	ldr	r2, [fp, #-60]	@ 0xffffffc4
	bytes_read = snprintf(msg, CHAR_DEV_MSG_SIZE, "\t<stats "
    3e7c:	e1a04000 	mov	r4, r0
	if (copy_to_user(buffer + *total_read, msg, CHAR_DEV_MSG_SIZE)) {
    3e80:	e59b3004 	ldr	r3, [fp, #4]
    3e84:	e5933000 	ldr	r3, [r3]
    3e88:	e0820003 	add	r0, r2, r3
    3e8c:	e3a03cfd 	mov	r3, #64768	@ 0xfd00
    3e90:	e34b3eff 	movt	r3, #48895	@ 0xbeff
    3e94:	e1500003 	cmp	r0, r3
    3e98:	9a000002 	bls	3ea8 <sfe_ipv6_debug_dev_read_stats+0x2cc>
		return false;
    3e9c:	e3a00000 	mov	r0, #0
}
    3ea0:	e24bd028 	sub	sp, fp, #40	@ 0x28
    3ea4:	e89daff0 	ldm	sp, {r4, r5, r6, r7, r8, r9, sl, fp, sp, pc}
    3ea8:	ee1d3f70 	mrc	15, 0, r3, cr13, cr0, {3}
	asm(
    3eac:	ee135f10 	mrc	15, 0, r5, cr3, cr0, {0}
	set_domain((old_domain & ~domain_mask(DOMAIN_USER)) |
    3eb0:	e3c5300c 	bic	r3, r5, #12
    3eb4:	e3833004 	orr	r3, r3, #4
	asm volatile(
    3eb8:	ee033f10 	mcr	15, 0, r3, cr3, cr0, {0}
	isb();
    3ebc:	f57ff06f 	isb	sy
	n = arm_copy_to_user(to, from, n);
    3ec0:	e51b1030 	ldr	r1, [fp, #-48]	@ 0xffffffd0
    3ec4:	e3a02c03 	mov	r2, #768	@ 0x300
    3ec8:	ebfffffe 	bl	0 <arm_copy_to_user>
	asm volatile(
    3ecc:	ee035f10 	mcr	15, 0, r5, cr3, cr0, {0}
	isb();
    3ed0:	f57ff06f 	isb	sy
	if (copy_to_user(buffer + *total_read, msg, CHAR_DEV_MSG_SIZE)) {
    3ed4:	e3500000 	cmp	r0, #0
    3ed8:	1affffef 	bne	3e9c <sfe_ipv6_debug_dev_read_stats+0x2c0>
	*length -= bytes_read;
    3edc:	e51b2078 	ldr	r2, [fp, #-120]	@ 0xffffff88
	return true;
    3ee0:	e3a00001 	mov	r0, #1
	*length -= bytes_read;
    3ee4:	e5923000 	ldr	r3, [r2]
    3ee8:	e0433004 	sub	r3, r3, r4
    3eec:	e5823000 	str	r3, [r2]
	*total_read += bytes_read;
    3ef0:	e59b3004 	ldr	r3, [fp, #4]
    3ef4:	e59b2004 	ldr	r2, [fp, #4]
    3ef8:	e5933000 	ldr	r3, [r3]
    3efc:	e0833004 	add	r3, r3, r4
    3f00:	e5823000 	str	r3, [r2]
	ws->state++;
    3f04:	e59b3008 	ldr	r3, [fp, #8]
    3f08:	e59b2008 	ldr	r2, [fp, #8]
    3f0c:	e5933000 	ldr	r3, [r3]
    3f10:	e0833000 	add	r3, r3, r0
    3f14:	e5823000 	str	r3, [r2]
}
    3f18:	e24bd028 	sub	sp, fp, #40	@ 0x28
    3f1c:	e89daff0 	ldm	sp, {r4, r5, r6, r7, r8, r9, sl, fp, sp, pc}

00003f20 <sfe_ipv4_debug_dev_read_stats>:
{
    3f20:	e1a0c00d 	mov	ip, sp
    3f24:	e92ddff0 	push	{r4, r5, r6, r7, r8, r9, sl, fp, ip, lr, pc}
    3f28:	e24cb004 	sub	fp, ip, #4
    3f2c:	e24dd094 	sub	sp, sp, #148	@ 0x94
    3f30:	e1a04000 	mov	r4, r0
    3f34:	e50b3074 	str	r3, [fp, #-116]	@ 0xffffff8c
	si->connection_create_requests = 0;
    3f38:	e3a06000 	mov	r6, #0
{
    3f3c:	e50b103c 	str	r1, [fp, #-60]	@ 0xffffffc4
	si->connection_create_requests = 0;
    3f40:	e3a07000 	mov	r7, #0
{
    3f44:	e50b2030 	str	r2, [fp, #-48]	@ 0xffffffd0
	raw_spin_lock_bh(&lock->rlock);
    3f48:	ebfffffe 	bl	0 <_raw_spin_lock_bh>
	si->connection_create_requests64 += si->connection_create_requests;
    3f4c:	e30810f0 	movw	r1, #33008	@ 0x80f0
    3f50:	e2840902 	add	r0, r4, #32768	@ 0x8000
    3f54:	e0842001 	add	r2, r4, r1
    3f58:	e590c030 	ldr	ip, [r0, #48]	@ 0x30
	si->connection_destroy_requests64 += si->connection_destroy_requests;
    3f5c:	e2843c81 	add	r3, r4, #33024	@ 0x8100
	si->connection_create_requests64 += si->connection_create_requests;
    3f60:	e512e008 	ldr	lr, [r2, #-8]
	si->connection_create_requests = 0;
    3f64:	e2808050 	add	r8, r0, #80	@ 0x50
	si->connection_create_requests64 += si->connection_create_requests;
    3f68:	e09cc00e 	adds	ip, ip, lr
    3f6c:	e50bc040 	str	ip, [fp, #-64]	@ 0xffffffc0
    3f70:	e502c008 	str	ip, [r2, #-8]
    3f74:	e512c004 	ldr	ip, [r2, #-4]
    3f78:	e2acc000 	adc	ip, ip, #0
    3f7c:	e50bc044 	str	ip, [fp, #-68]	@ 0xffffffbc
    3f80:	e502c004 	str	ip, [r2, #-4]
	si->connection_create_collisions64 += si->connection_create_collisions;
    3f84:	e794e001 	ldr	lr, [r4, r1]
    3f88:	e590c034 	ldr	ip, [r0, #52]	@ 0x34
    3f8c:	e09cc00e 	adds	ip, ip, lr
    3f90:	e1a0e00c 	mov	lr, ip
    3f94:	e592c004 	ldr	ip, [r2, #4]
    3f98:	e784e001 	str	lr, [r4, r1]
    3f9c:	e50be048 	str	lr, [fp, #-72]	@ 0xffffffb8
    3fa0:	e2ac1000 	adc	r1, ip, #0
    3fa4:	e50b104c 	str	r1, [fp, #-76]	@ 0xffffffb4
    3fa8:	e5821004 	str	r1, [r2, #4]
	si->connection_destroy_requests64 += si->connection_destroy_requests;
    3fac:	e5131008 	ldr	r1, [r3, #-8]
    3fb0:	e5902038 	ldr	r2, [r0, #56]	@ 0x38
    3fb4:	e0922001 	adds	r2, r2, r1
	si->connection_destroy_misses64 += si->connection_destroy_misses;
    3fb8:	e5931000 	ldr	r1, [r3]
	si->connection_destroy_requests64 += si->connection_destroy_requests;
    3fbc:	e50b2050 	str	r2, [fp, #-80]	@ 0xffffffb0
    3fc0:	e5032008 	str	r2, [r3, #-8]
    3fc4:	e5132004 	ldr	r2, [r3, #-4]
    3fc8:	e2a22000 	adc	r2, r2, #0
    3fcc:	e50b2054 	str	r2, [fp, #-84]	@ 0xffffffac
    3fd0:	e5032004 	str	r2, [r3, #-4]
	si->connection_destroy_misses64 += si->connection_destroy_misses;
    3fd4:	e590203c 	ldr	r2, [r0, #60]	@ 0x3c
    3fd8:	e0922001 	adds	r2, r2, r1
	si->connection_match_hash_hits64 += si->connection_match_hash_hits;
    3fdc:	e3081110 	movw	r1, #33040	@ 0x8110
	si->connection_destroy_misses64 += si->connection_destroy_misses;
    3fe0:	e50b2058 	str	r2, [fp, #-88]	@ 0xffffffa8
    3fe4:	e5832000 	str	r2, [r3]
    3fe8:	e5932004 	ldr	r2, [r3, #4]
    3fec:	e2a22000 	adc	r2, r2, #0
    3ff0:	e5832004 	str	r2, [r3, #4]
	si->connection_match_hash_hits64 += si->connection_match_hash_hits;
    3ff4:	e0843001 	add	r3, r4, r1
    3ff8:	e590c040 	ldr	ip, [r0, #64]	@ 0x40
    3ffc:	e513e008 	ldr	lr, [r3, #-8]
	si->connection_destroy_misses64 += si->connection_destroy_misses;
    4000:	e50b205c 	str	r2, [fp, #-92]	@ 0xffffffa4
	si->connection_flushes64 += si->connection_flushes;
    4004:	e3082120 	movw	r2, #33056	@ 0x8120
	si->connection_match_hash_hits64 += si->connection_match_hash_hits;
    4008:	e09cc00e 	adds	ip, ip, lr
    400c:	e50bc060 	str	ip, [fp, #-96]	@ 0xffffffa0
    4010:	e503c008 	str	ip, [r3, #-8]
    4014:	e513c004 	ldr	ip, [r3, #-4]
    4018:	e50b8034 	str	r8, [fp, #-52]	@ 0xffffffcc
    401c:	e2acc000 	adc	ip, ip, #0
    4020:	e50bc064 	str	ip, [fp, #-100]	@ 0xffffff9c
    4024:	e503c004 	str	ip, [r3, #-4]
	si->connection_match_hash_reorders64 += si->connection_match_hash_reorders;
    4028:	e794e001 	ldr	lr, [r4, r1]
    402c:	e590c044 	ldr	ip, [r0, #68]	@ 0x44
    4030:	e09ca00e 	adds	sl, ip, lr
    4034:	e593c004 	ldr	ip, [r3, #4]
	si->packets_not_forwarded64 += si->packets_not_forwarded;
    4038:	e284ec81 	add	lr, r4, #33024	@ 0x8100
	si->connection_match_hash_reorders64 += si->connection_match_hash_reorders;
    403c:	e784a001 	str	sl, [r4, r1]
    4040:	e2ac9000 	adc	r9, ip, #0
    4044:	e5839004 	str	r9, [r3, #4]
	si->connection_flushes64 += si->connection_flushes;
    4048:	e0843002 	add	r3, r4, r2
    404c:	e5901048 	ldr	r1, [r0, #72]	@ 0x48
    4050:	e513c008 	ldr	ip, [r3, #-8]
	si->packets_forwarded64 += si->packets_forwarded;
    4054:	e5935004 	ldr	r5, [r3, #4]
	si->connection_flushes64 += si->connection_flushes;
    4058:	e091100c 	adds	r1, r1, ip
    405c:	e1a0c001 	mov	ip, r1
    4060:	e5131004 	ldr	r1, [r3, #-4]
    4064:	e50bc068 	str	ip, [fp, #-104]	@ 0xffffff98
    4068:	e503c008 	str	ip, [r3, #-8]
    406c:	e2a11000 	adc	r1, r1, #0
    4070:	e50b106c 	str	r1, [fp, #-108]	@ 0xffffff94
    4074:	e5031004 	str	r1, [r3, #-4]
	si->packets_forwarded64 += si->packets_forwarded;
    4078:	e794c002 	ldr	ip, [r4, r2]
    407c:	e590104c 	ldr	r1, [r0, #76]	@ 0x4c
    4080:	e091100c 	adds	r1, r1, ip
	si->connection_create_requests64 += si->connection_create_requests;
    4084:	e3a0c000 	mov	ip, #0
	si->packets_forwarded64 += si->packets_forwarded;
    4088:	e2a55000 	adc	r5, r5, #0
    408c:	e7841002 	str	r1, [r4, r2]
    4090:	e28e2028 	add	r2, lr, #40	@ 0x28
    4094:	e5835004 	str	r5, [r3, #4]
	si->connection_create_requests = 0;
    4098:	e2843902 	add	r3, r4, #32768	@ 0x8000
    409c:	e2833040 	add	r3, r3, #64	@ 0x40
	si->packets_forwarded64 += si->packets_forwarded;
    40a0:	e50b1070 	str	r1, [fp, #-112]	@ 0xffffff90
    40a4:	e2841c82 	add	r1, r4, #33280	@ 0x8200
    40a8:	e50b2038 	str	r2, [fp, #-56]	@ 0xffffffc8
	si->connection_create_requests = 0;
    40ac:	e3082030 	movw	r2, #32816	@ 0x8030
    40b0:	e2811050 	add	r1, r1, #80	@ 0x50
    40b4:	e18460f2 	strd	r6, [r4, r2]
	si->packets_not_forwarded = 0;
    40b8:	e1a02008 	mov	r2, r8
	si->connection_create_requests = 0;
    40bc:	e14360f8 	strd	r6, [r3, #-8]
    40c0:	e3083040 	movw	r3, #32832	@ 0x8040
    40c4:	e18460f3 	strd	r6, [r4, r3]
    40c8:	e14860f8 	strd	r6, [r8, #-8]
	si->packets_not_forwarded64 += si->packets_not_forwarded;
    40cc:	e59e7028 	ldr	r7, [lr, #40]	@ 0x28
    40d0:	e5906050 	ldr	r6, [r0, #80]	@ 0x50
    40d4:	e0966007 	adds	r6, r6, r7
    40d8:	e59e702c 	ldr	r7, [lr, #44]	@ 0x2c
    40dc:	e2a77000 	adc	r7, r7, #0
    40e0:	e1ce62f8 	strd	r6, [lr, #40]	@ 0x28
	si->packets_not_forwarded = 0;
    40e4:	e580c050 	str	ip, [r0, #80]	@ 0x50
    40e8:	e51b3038 	ldr	r3, [fp, #-56]	@ 0xffffffc8
		si->exception_events64[i] += si->exception_events[i];
    40ec:	e5b2e004 	ldr	lr, [r2, #4]!
    40f0:	e5b30008 	ldr	r0, [r3, #8]!
    40f4:	e090000e 	adds	r0, r0, lr
