Certificate:
    Data:
        Version: 3 (0x2)
        Serial Number:
            ad:8c:09:e8:fb:a2:88:d2
        Signature Algorithm: sha384WithRSAEncryption
        Issuer: C=FI, L=Helsinki, O=w1.fi, CN=Suite B RSA 3k Root CA
        Validity
            Not Before: Aug 22 13:56:07 2023 GMT
            Not After : Aug 21 13:56:07 2025 GMT
        Subject: C=FI, O=w1.fi, CN=user-rsa3072
        Subject Public Key Info:
            Public Key Algorithm: rsaEncryption
                Public-Key: (3072 bit)
                Modulus:
                    00:92:77:67:8e:44:34:83:a8:37:f9:a9:c4:72:5c:
                    71:72:9d:35:1d:3d:8c:34:22:5c:24:f8:87:81:de:
                    de:ac:a5:93:77:c5:38:a4:82:9c:8c:06:9b:14:8b:
                    52:09:32:4c:31:c5:f8:e9:2f:64:8a:39:0a:70:9e:
                    4e:8a:9c:bc:a5:ab:78:18:52:44:75:fe:c3:00:61:
                    e7:1f:45:c0:12:72:e4:38:9e:28:9d:f6:76:60:70:
                    b3:7b:11:ca:90:98:2a:ea:26:c0:5c:ae:a9:12:cc:
                    52:11:a6:02:ac:e8:59:56:7a:a8:93:ec:fd:06:ee:
                    ac:e8:af:17:68:57:4f:39:ca:d4:48:49:8a:b4:8d:
                    3e:21:51:a3:96:e7:9f:24:e5:f5:10:e7:36:fe:8e:
                    33:b2:7d:22:66:8f:42:65:cf:0f:4f:cc:a3:24:0f:
                    e3:ba:98:89:35:a7:54:99:ec:81:47:c4:2f:b2:3b:
                    3b:b2:4c:ce:a4:a8:5a:66:10:40:8e:0d:7d:67:d8:
                    ed:1a:fd:e5:61:16:db:f5:4c:73:40:39:e3:7d:6f:
                    27:26:08:68:18:02:df:3b:5a:04:0a:08:c5:53:bb:
                    1d:00:91:6c:f6:38:2a:f0:aa:9f:2b:36:6e:95:24:
                    a7:1a:84:d8:5c:6a:f8:d5:3f:62:0f:20:4b:b7:96:
                    c6:c2:1b:f8:81:64:13:15:7a:9b:5d:98:ee:0f:d9:
                    73:37:d5:3c:9f:35:52:93:df:72:9d:89:d4:9f:20:
                    f2:13:85:12:00:7c:23:27:ce:f9:dd:e2:b7:82:09:
                    a2:fa:26:54:22:c7:fd:b4:fa:1a:d3:6d:29:8f:1b:
                    67:13:2f:d8:e2:f0:5c:75:9e:aa:79:fc:c1:b7:48:
                    5d:08:12:01:37:78:13:f9:53:37:3a:a8:21:38:e7:
                    5f:74:fb:85:53:6b:21:6b:82:c9:a5:41:2c:a3:39:
                    74:14:a0:5c:03:c8:13:17:55:a6:15:45:52:3c:b9:
                    b9:3f:fe:d9:a8:14:6f:20:c5:21
                Exponent: 65537 (0x10001)
        X509v3 extensions:
            X509v3 Basic Constraints: 
                CA:FALSE
            X509v3 Subject Key Identifier: 
                B1:4F:36:17:24:40:AD:6B:05:33:87:C4:AD:4F:4A:53:AF:F5:D6:23
            X509v3 Authority Key Identifier: 
                21:F7:EF:DA:C3:34:3A:ED:CD:D5:50:C0:B3:BA:09:EE:3F:80:D7:70
            X509v3 Subject Alternative Name: 
                email:user-rsa3072@w1.fi
            X509v3 Extended Key Usage: 
                TLS Web Client Authentication
            X509v3 Key Usage: 
                Digital Signature, Key Encipherment
    Signature Algorithm: sha384WithRSAEncryption
    Signature Value:
        c0:3d:04:c6:31:cc:53:39:e2:91:f1:f3:88:31:3c:41:8c:68:
        45:70:e3:75:df:cb:e3:41:5d:59:64:a2:1f:1e:fa:df:6e:2a:
        b9:89:92:79:7f:e3:5d:4e:d9:24:b9:9f:e7:50:16:42:6a:16:
        9f:7c:2c:78:32:a1:f4:ec:e9:ef:35:9f:c9:e1:ec:5f:0c:a7:
        63:da:eb:d4:80:a9:0c:ae:e5:63:e2:1d:93:96:e0:9c:a4:55:
        d5:69:c9:72:56:8c:aa:f8:51:1c:8a:2a:f0:65:a7:64:b3:f5:
        9a:5b:0b:82:a1:c4:54:6b:38:6d:6c:88:bc:d8:9c:7e:38:37:
        e6:26:af:82:ff:4c:92:12:25:60:44:eb:30:83:0b:5c:c6:69:
        f9:41:63:4a:73:43:6f:a1:06:91:f2:20:f4:f7:0b:c6:5c:72:
        6d:ae:7b:f5:16:8e:69:ad:b2:26:5f:c3:21:8d:35:37:e1:ab:
        09:4e:70:5d:e3:cf:23:c9:03:a2:c4:b9:20:e2:6a:5c:d5:b9:
        ef:40:4f:b5:3c:94:fc:e8:3c:ea:19:89:52:e1:7b:6f:53:40:
        b3:c5:54:a9:e1:dd:51:7b:17:7f:14:dc:7b:6b:28:16:a8:94:
        c9:c7:99:ad:ee:14:3b:37:49:92:b3:ef:9d:1d:72:69:f9:6e:
        52:de:c0:f3:88:1b:45:b9:2f:b9:48:a0:cc:f9:77:7c:27:07:
        e2:09:13:2b:ea:fb:2d:0d:32:69:ff:60:57:82:67:91:10:80:
        51:64:94:8b:7b:8a:39:da:46:9a:5d:ca:9b:04:25:3e:39:c8:
        9c:30:02:1c:e4:56:25:b9:90:a7:86:55:90:63:69:72:5c:91:
        b9:3c:1f:a7:da:20:43:d1:2d:90:38:51:3e:05:a2:d5:d1:ab:
        cc:3d:29:d1:c0:aa:a6:40:5b:19:2a:79:58:9e:47:9d:33:b2:
        37:88:b8:d1:e1:1a:9d:59:25:45:99:aa:a3:a2:6a:13:e7:62:
        a4:79:42:8a:f0:a1
-----BEGIN CERTIFICATE-----
MIIEmDCCAwCgAwIBAgIJAK2MCej7oojSMA0GCSqGSIb3DQEBDAUAMFExCzAJBgNV
BAYTAkZJMREwDwYDVQQHDAhIZWxzaW5raTEOMAwGA1UECgwFdzEuZmkxHzAdBgNV
BAMMFlN1aXRlIEIgUlNBIDNrIFJvb3QgQ0EwHhcNMjMwODIyMTM1NjA3WhcNMjUw
ODIxMTM1NjA3WjA0MQswCQYDVQQGEwJGSTEOMAwGA1UECgwFdzEuZmkxFTATBgNV
BAMMDHVzZXItcnNhMzA3MjCCAaIwDQYJKoZIhvcNAQEBBQADggGPADCCAYoCggGB
AJJ3Z45ENIOoN/mpxHJccXKdNR09jDQiXCT4h4He3qylk3fFOKSCnIwGmxSLUgky
TDHF+OkvZIo5CnCeToqcvKWreBhSRHX+wwBh5x9FwBJy5DieKJ32dmBws3sRypCY
KuomwFyuqRLMUhGmAqzoWVZ6qJPs/QburOivF2hXTznK1EhJirSNPiFRo5bnnyTl
9RDnNv6OM7J9ImaPQmXPD0/MoyQP47qYiTWnVJnsgUfEL7I7O7JMzqSoWmYQQI4N
fWfY7Rr95WEW2/VMc0A5431vJyYIaBgC3ztaBAoIxVO7HQCRbPY4KvCqnys2bpUk
pxqE2Fxq+NU/Yg8gS7eWxsIb+IFkExV6m12Y7g/ZczfVPJ81UpPfcp2J1J8g8hOF
EgB8IyfO+d3it4IJovomVCLH/bT6GtNtKY8bZxMv2OLwXHWeqnn8wbdIXQgSATd4
E/lTNzqoITjnX3T7hVNrIWuCyaVBLKM5dBSgXAPIExdVphVFUjy5uT/+2agUbyDF
IQIDAQABo4GPMIGMMAkGA1UdEwQCMAAwHQYDVR0OBBYEFLFPNhckQK1rBTOHxK1P
SlOv9dYjMB8GA1UdIwQYMBaAFCH379rDNDrtzdVQwLO6Ce4/gNdwMB0GA1UdEQQW
MBSBEnVzZXItcnNhMzA3MkB3MS5maTATBgNVHSUEDDAKBggrBgEFBQcDAjALBgNV
HQ8EBAMCBaAwDQYJKoZIhvcNAQEMBQADggGBAMA9BMYxzFM54pHx84gxPEGMaEVw
43Xfy+NBXVlkoh8e+t9uKrmJknl/411O2SS5n+dQFkJqFp98LHgyofTs6e81n8nh
7F8Mp2Pa69SAqQyu5WPiHZOW4JykVdVpyXJWjKr4URyKKvBlp2Sz9ZpbC4KhxFRr
OG1siLzYnH44N+Ymr4L/TJISJWBE6zCDC1zGaflBY0pzQ2+hBpHyIPT3C8Zccm2u
e/UWjmmtsiZfwyGNNTfhqwlOcF3jzyPJA6LEuSDialzVue9AT7U8lPzoPOoZiVLh
e29TQLPFVKnh3VF7F38U3HtrKBaolMnHma3uFDs3SZKz750dcmn5blLewPOIG0W5
L7lIoMz5d3wnB+IJEyvq+y0NMmn/YFeCZ5EQgFFklIt7ijnaRppdypsEJT45yJww
AhzkViW5kKeGVZBjaXJckbk8H6faIEPRLZA4UT4FotXRq8w9KdHAqqZAWxkqeVie
R50zsjeIuNHhGp1ZJUWZqqOiahPnYqR5QorwoQ==
-----END CERTIFICATE-----
