Certificate:
    Data:
        Version: 3 (0x2)
        Serial Number:
            ad:8c:09:e8:fb:a2:88:d3
        Signature Algorithm: sha384WithRSAEncryption
        Issuer: C=FI, L=Helsinki, O=w1.fi, CN=Suite B RSA 3k Root CA
        Validity
            Not Before: Aug 22 13:56:07 2023 GMT
            Not After : Aug 21 13:56:07 2025 GMT
        Subject: C=FI, O=w1.fi, CN=user-rsa3072-rsa2048
        Subject Public Key Info:
            Public Key Algorithm: rsaEncryption
                Public-Key: (2048 bit)
                Modulus:
                    00:db:66:ff:8b:95:66:96:2e:4a:74:02:80:43:fc:
                    09:fa:b6:41:78:09:f8:e9:bf:6b:41:fd:5b:bf:cc:
                    66:d8:07:c3:0d:ec:48:97:8d:2c:4f:58:f5:b5:27:
                    07:ee:48:7c:6b:98:a2:76:e8:8b:94:11:77:68:36:
                    43:1f:2c:88:9f:d6:40:df:ec:27:16:63:ae:34:1c:
                    d5:ec:26:c5:d9:ad:77:a9:73:14:86:a3:a4:2e:67:
                    63:fd:e8:d7:dd:c7:18:67:0a:d3:af:bf:7d:20:9a:
                    67:fd:5c:c0:7c:6e:cc:d8:ab:3d:2b:8e:ae:09:0c:
                    b5:23:d9:b4:f9:fb:e2:69:e3:69:05:28:5d:ee:37:
                    1b:c7:c0:ba:83:ce:e1:30:62:1f:a9:dd:ab:9e:d4:
                    dd:8c:e4:a4:e0:1f:a5:dc:95:48:02:a0:9f:f4:a5:
                    a8:71:c8:8f:06:be:4c:4e:41:8c:7f:91:47:a8:06:
                    6d:46:c3:49:b8:af:c5:27:46:41:e2:2c:b6:6d:68:
                    66:da:c0:0c:84:be:df:61:ca:49:47:f7:19:66:36:
                    09:05:1b:27:9b:80:43:f0:55:41:b4:4e:0f:25:71:
                    e5:ba:b8:dc:72:b0:b5:49:a8:95:02:49:a8:67:2a:
                    78:f3:b4:0e:ab:69:05:e9:d9:30:ad:b0:bd:26:f0:
                    8d:33
                Exponent: 65537 (0x10001)
        X509v3 extensions:
            X509v3 Basic Constraints: 
                CA:FALSE
            X509v3 Subject Key Identifier: 
                CC:85:AA:3D:E4:37:51:3E:70:46:96:8E:00:65:C3:81:20:E0:E4:87
            X509v3 Authority Key Identifier: 
                21:F7:EF:DA:C3:34:3A:ED:CD:D5:50:C0:B3:BA:09:EE:3F:80:D7:70
            X509v3 Subject Alternative Name: 
                email:user-rsa3072-rsa2048@w1.fi
            X509v3 Extended Key Usage: 
                TLS Web Client Authentication
            X509v3 Key Usage: 
                Digital Signature, Key Encipherment
    Signature Algorithm: sha384WithRSAEncryption
    Signature Value:
        5d:1a:48:3b:d4:fa:3a:92:da:7c:11:26:5f:0d:a7:53:92:47:
        9d:43:13:bb:d5:d0:ca:f3:71:95:f2:da:9e:f4:f8:8c:b7:5a:
        28:26:fe:b3:e0:45:99:60:e7:2f:1a:de:82:eb:e3:d4:b3:56:
        07:11:1c:fc:2f:e4:4d:52:0a:67:db:6d:de:5c:18:77:1c:f1:
        99:0c:ae:71:ce:67:c1:33:c9:42:ea:b8:84:9a:56:fb:9d:5d:
        54:75:7b:ad:90:f6:3e:59:91:1f:be:b1:00:50:38:02:24:50:
        20:b5:af:11:80:0a:b1:c4:86:40:fb:13:03:62:7f:cf:93:71:
        50:43:6f:1d:58:0b:9f:9e:b8:c7:2c:28:c7:66:36:fd:2b:77:
        13:47:b4:2a:e5:f0:3c:9c:28:15:1f:cb:20:1b:cc:63:ab:8e:
        1b:51:f4:30:2b:cc:79:3a:90:c8:28:1f:94:23:d7:d7:0a:0d:
        b8:3c:2e:4e:ca:3d:45:e0:e5:c8:5d:c1:65:b5:73:06:5b:cb:
        60:b0:0f:43:39:48:cb:8a:52:88:5c:b8:4e:d8:51:25:29:d6:
        dd:ae:49:1d:e3:b6:ad:6e:54:d6:cd:1a:cc:be:76:cf:44:de:
        4f:1d:c8:4a:32:d6:73:b8:34:83:cd:31:d4:da:c5:e2:93:f9:
        b7:53:ec:1e:4d:16:0d:d6:e4:23:26:75:64:6f:c2:a9:77:7d:
        10:6f:50:84:1c:25:3e:cb:e2:51:ea:25:64:ee:f1:cb:10:25:
        84:b3:03:74:64:9a:e4:45:9d:e8:74:78:06:e1:7f:7f:37:51:
        52:37:8f:7c:d2:cc:56:47:00:07:a2:04:b0:9e:07:b6:5e:73:
        11:7f:10:3b:83:bb:19:1a:5a:d0:92:49:42:bf:bc:f2:5f:5c:
        ec:a4:2d:20:4e:b4:b2:89:27:b2:da:2d:f5:9e:58:19:b7:20:
        b1:67:84:81:a5:34:b3:c9:24:35:d0:d2:90:54:dc:7e:58:9a:
        0d:5a:f1:92:15:04
-----BEGIN CERTIFICATE-----
MIIEKDCCApCgAwIBAgIJAK2MCej7oojTMA0GCSqGSIb3DQEBDAUAMFExCzAJBgNV
BAYTAkZJMREwDwYDVQQHDAhIZWxzaW5raTEOMAwGA1UECgwFdzEuZmkxHzAdBgNV
BAMMFlN1aXRlIEIgUlNBIDNrIFJvb3QgQ0EwHhcNMjMwODIyMTM1NjA3WhcNMjUw
ODIxMTM1NjA3WjA8MQswCQYDVQQGEwJGSTEOMAwGA1UECgwFdzEuZmkxHTAbBgNV
BAMMFHVzZXItcnNhMzA3Mi1yc2EyMDQ4MIIBIjANBgkqhkiG9w0BAQEFAAOCAQ8A
MIIBCgKCAQEA22b/i5Vmli5KdAKAQ/wJ+rZBeAn46b9rQf1bv8xm2AfDDexIl40s
T1j1tScH7kh8a5iiduiLlBF3aDZDHyyIn9ZA3+wnFmOuNBzV7CbF2a13qXMUhqOk
Lmdj/ejX3ccYZwrTr799IJpn/VzAfG7M2Ks9K46uCQy1I9m0+fviaeNpBShd7jcb
x8C6g87hMGIfqd2rntTdjOSk4B+l3JVIAqCf9KWocciPBr5MTkGMf5FHqAZtRsNJ
uK/FJ0ZB4iy2bWhm2sAMhL7fYcpJR/cZZjYJBRsnm4BD8FVBtE4PJXHlurjccrC1
SaiVAkmoZyp487QOq2kF6dkwrbC9JvCNMwIDAQABo4GXMIGUMAkGA1UdEwQCMAAw
HQYDVR0OBBYEFMyFqj3kN1E+cEaWjgBlw4Eg4OSHMB8GA1UdIwQYMBaAFCH379rD
NDrtzdVQwLO6Ce4/gNdwMCUGA1UdEQQeMByBGnVzZXItcnNhMzA3Mi1yc2EyMDQ4
QHcxLmZpMBMGA1UdJQQMMAoGCCsGAQUFBwMCMAsGA1UdDwQEAwIFoDANBgkqhkiG
9w0BAQwFAAOCAYEAXRpIO9T6OpLafBEmXw2nU5JHnUMTu9XQyvNxlfLanvT4jLda
KCb+s+BFmWDnLxreguvj1LNWBxEc/C/kTVIKZ9tt3lwYdxzxmQyucc5nwTPJQuq4
hJpW+51dVHV7rZD2PlmRH76xAFA4AiRQILWvEYAKscSGQPsTA2J/z5NxUENvHVgL
n564xywox2Y2/St3E0e0KuXwPJwoFR/LIBvMY6uOG1H0MCvMeTqQyCgflCPX1woN
uDwuTso9ReDlyF3BZbVzBlvLYLAPQzlIy4pSiFy4TthRJSnW3a5JHeO2rW5U1s0a
zL52z0TeTx3ISjLWc7g0g80x1NrF4pP5t1PsHk0WDdbkIyZ1ZG/CqXd9EG9QhBwl
PsviUeolZO7xyxAlhLMDdGSa5EWd6HR4BuF/fzdRUjePfNLMVkcAB6IEsJ4Htl5z
EX8QO4O7GRpa0JJJQr+88l9c7KQtIE60soknstot9Z5YGbcgsWeEgaU0s8kkNdDS
kFTcfliaDVrxkhUE
-----END CERTIFICATE-----
