Certificate:
    Data:
        Version: 3 (0x2)
        Serial Number:
            d8:d3:e3:a6:cb:e3:cd:7d
        Signature Algorithm: sha256WithRSAEncryption
        Issuer: C=FI, L=Tuusula, O=w1.fi, CN=Root CA
        Validity
            Not Before: Apr 18 08:02:42 2023 GMT
            Not After : Apr 17 08:02:42 2024 GMT
        Subject: C=FI, O=w1.fi, CN=server.w1.fi
        Subject Public Key Info:
            Public Key Algorithm: rsaEncryption
                Public-Key: (2048 bit)
                Modulus:
                    00:fd:0e:5e:cd:19:2c:6a:41:83:d9:2c:0e:36:cd:
                    09:b0:8f:b2:c9:8c:c8:d2:03:38:6e:54:bc:43:ee:
                    ce:f8:59:b1:e9:3f:6d:d4:5e:e3:c5:73:19:3d:0b:
                    bc:29:d7:d0:6e:75:00:35:fc:f7:65:b1:b6:0f:cb:
                    06:49:cf:a9:4e:3d:c2:64:4b:18:24:0a:70:b8:6e:
                    54:dc:90:3f:6c:18:fd:b6:88:ab:37:dc:8b:4b:b5:
                    e1:ff:ed:bb:45:05:a3:f0:aa:51:2b:f1:79:06:7f:
                    2f:cd:5d:fc:e6:8a:af:1b:b9:7b:ca:43:75:01:1d:
                    8e:2d:d9:11:13:86:fb:3c:4b:60:a4:29:49:e3:d2:
                    20:20:cb:5c:0d:9c:d2:9c:30:21:11:bc:b3:74:df:
                    64:b0:b7:67:ee:6a:df:af:3d:18:02:b7:dc:e5:54:
                    75:b5:6c:40:c4:b0:8a:1b:c6:fd:ab:1e:b9:ef:d1:
                    83:09:0d:55:ba:17:88:4e:d0:bd:cf:73:36:7c:28:
                    4b:f6:aa:48:d4:e8:fb:25:d8:1d:af:c9:68:73:ac:
                    46:ae:cb:eb:79:36:57:ad:c3:70:02:15:6d:f0:a5:
                    43:73:ab:72:04:b1:16:60:74:0e:4a:c1:8f:52:28:
                    1a:95:7e:ab:d0:04:f6:fa:11:da:1b:d1:99:a4:4f:
                    9e:ed
                Exponent: 65537 (0x10001)
        X509v3 extensions:
            X509v3 Basic Constraints: 
                CA:FALSE
            X509v3 Subject Key Identifier: 
                71:26:7A:1F:72:81:97:24:11:AA:C0:75:FA:BF:31:10:69:49:D0:E7
            X509v3 Authority Key Identifier: 
                A4:FD:B9:39:1B:81:B3:AA:EB:88:1D:D4:81:A9:B5:11:70:CC:A7:E1
            Authority Information Access: 
                OCSP - URI:http://server.w1.fi:8888/
            X509v3 Subject Alternative Name: 
                DNS:server.w1.fi
            X509v3 Extended Key Usage: 
                TLS Web Server Authentication
    Signature Algorithm: sha256WithRSAEncryption
    Signature Value:
        3d:1d:f2:7d:c1:b0:48:79:ae:1c:5c:90:f8:29:99:60:49:ff:
        81:0c:b6:a0:89:21:ea:3f:91:97:a6:27:43:ef:9a:83:bc:46:
        db:5d:5b:7f:c5:c3:3d:bb:3c:28:53:7e:5e:a3:1f:ca:06:da:
        74:b3:4b:fc:1f:1f:62:ac:83:a3:b7:41:c1:50:1b:d6:93:b0:
        1f:24:87:be:08:02:f2:51:99:4e:0c:85:cc:df:b8:8d:93:12:
        cf:63:ae:9f:47:88:36:55:eb:af:ed:de:07:0b:f8:b1:e8:0f:
        cd:fe:fd:4e:69:33:d7:35:3f:18:95:56:20:df:87:58:8e:64:
        60:72:36:21:67:3d:6d:99:85:86:10:33:78:94:b1:75:75:40:
        98:b3:64:38:03:57:e5:11:c7:15:36:4d:44:96:e4:22:ea:1c:
        87:77:76:2a:20:c5:9a:58:f3:85:f9:20:b8:6e:fd:88:2e:73:
        08:7c:22:fb:e5:de:f9:aa:7d:39:1c:ab:d9:b4:37:0b:76:90:
        0a:ee:24:5e:4b:8c:3f:14:38:f9:1f:1c:1f:d1:15:46:d8:ce:
        6c:13:1e:15:62:38:72:72:eb:d9:3f:ab:15:e8:f6:28:8c:e7:
        ea:89:75:83:ae:ba:b2:93:4b:9a:61:a1:23:88:a0:9c:e4:39:
        95:5f:2b:84
-----BEGIN CERTIFICATE-----
MIIDrDCCApSgAwIBAgIJANjT46bL4819MA0GCSqGSIb3DQEBCwUAMEExCzAJBgNV
BAYTAkZJMRAwDgYDVQQHDAdUdXVzdWxhMQ4wDAYDVQQKDAV3MS5maTEQMA4GA1UE
AwwHUm9vdCBDQTAeFw0yMzA0MTgwODAyNDJaFw0yNDA0MTcwODAyNDJaMDQxCzAJ
BgNVBAYTAkZJMQ4wDAYDVQQKDAV3MS5maTEVMBMGA1UEAwwMc2VydmVyLncxLmZp
MIIBIjANBgkqhkiG9w0BAQEFAAOCAQ8AMIIBCgKCAQEA/Q5ezRksakGD2SwONs0J
sI+yyYzI0gM4blS8Q+7O+Fmx6T9t1F7jxXMZPQu8KdfQbnUANfz3ZbG2D8sGSc+p
Tj3CZEsYJApwuG5U3JA/bBj9toirN9yLS7Xh/+27RQWj8KpRK/F5Bn8vzV385oqv
G7l7ykN1AR2OLdkRE4b7PEtgpClJ49IgIMtcDZzSnDAhEbyzdN9ksLdn7mrfrz0Y
Arfc5VR1tWxAxLCKG8b9qx6579GDCQ1VuheITtC9z3M2fChL9qpI1Oj7Jdgdr8lo
c6xGrsvreTZXrcNwAhVt8KVDc6tyBLEWYHQOSsGPUigalX6r0AT2+hHaG9GZpE+e
7QIDAQABo4GzMIGwMAkGA1UdEwQCMAAwHQYDVR0OBBYEFHEmeh9ygZckEarAdfq/
MRBpSdDnMB8GA1UdIwQYMBaAFKT9uTkbgbOq64gd1IGptRFwzKfhMDUGCCsGAQUF
BwEBBCkwJzAlBggrBgEFBQcwAYYZaHR0cDovL3NlcnZlci53MS5maTo4ODg4LzAX
BgNVHREEEDAOggxzZXJ2ZXIudzEuZmkwEwYDVR0lBAwwCgYIKwYBBQUHAwEwDQYJ
KoZIhvcNAQELBQADggEBAD0d8n3BsEh5rhxckPgpmWBJ/4EMtqCJIeo/kZemJ0Pv
moO8RttdW3/Fwz27PChTfl6jH8oG2nSzS/wfH2Ksg6O3QcFQG9aTsB8kh74IAvJR
mU4MhczfuI2TEs9jrp9HiDZV66/t3gcL+LHoD83+/U5pM9c1PxiVViDfh1iOZGBy
NiFnPW2ZhYYQM3iUsXV1QJizZDgDV+URxxU2TUSW5CLqHId3diogxZpY84X5ILhu
/Ygucwh8Ivvl3vmqfTkcq9m0Nwt2kAruJF5LjD8UOPkfHB/RFUbYzmwTHhViOHJy
69k/qxXo9iiM5+qJdYOuurKTS5phoSOIoJzkOZVfK4Q=
-----END CERTIFICATE-----
