Certificate:
    Data:
        Version: 3 (0x2)
        Serial Number:
            d8:d3:e3:a6:cb:e3:cd:7f
        Signature Algorithm: sha256WithRSAEncryption
        Issuer: C=FI, L=Tuusula, O=w1.fi, CN=Root CA
        Validity
            Not Before: Jan  1 00:00:00 2020 GMT
            Not After : Jan  2 00:00:00 2020 GMT
        Subject: C=FI, O=w1.fi, CN=server4.w1.fi
        Subject Public Key Info:
            Public Key Algorithm: rsaEncryption
                Public-Key: (2048 bit)
                Modulus:
                    00:b0:77:f1:3e:66:e7:fc:0b:51:f9:d8:a3:ae:2f:
                    f6:4a:75:38:3e:d4:47:7b:d6:24:32:b4:c8:d9:e0:
                    d0:a5:12:f4:89:a7:89:01:d9:54:43:ce:81:4a:bd:
                    ed:16:f3:7c:c1:67:36:8b:73:4d:21:91:e7:4b:7e:
                    74:c5:3b:15:b8:c6:46:7e:a9:a2:91:c3:f5:90:b3:
                    cf:f9:0c:eb:ba:6f:ee:b9:ab:77:3d:03:9e:9d:77:
                    07:bf:97:6a:d4:4d:b6:da:fd:36:54:25:e3:09:26:
                    89:7f:a1:11:c1:f6:dc:be:5c:57:a8:e6:45:57:3d:
                    98:14:06:72:ac:e9:c8:81:06:38:9c:cf:cd:0a:0e:
                    78:4e:9e:7b:10:c2:61:a5:43:ef:34:16:df:3c:e0:
                    a3:44:77:48:cd:be:e4:79:cb:31:39:9f:53:dd:a3:
                    0e:76:5a:6c:24:5e:56:35:9b:a2:7d:b3:9e:42:f1:
                    61:9c:e8:9e:1c:b8:9a:10:1e:32:29:21:cb:30:16:
                    e0:03:11:f9:88:f2:8f:04:a5:e6:a7:9c:73:e1:93:
                    d8:51:2d:bb:45:83:8f:b6:93:41:39:41:84:5f:4b:
                    ad:00:25:91:3d:16:0a:eb:f0:b8:92:e0:5c:75:65:
                    85:17:d2:80:e6:5e:66:a2:a4:df:c7:08:76:33:49:
                    cf:1d
                Exponent: 65537 (0x10001)
        X509v3 extensions:
            X509v3 Basic Constraints: 
                CA:FALSE
            X509v3 Subject Key Identifier: 
                21:B0:31:C6:14:D4:BD:5C:DF:70:24:51:34:9E:93:F5:18:B3:1C:A1
            X509v3 Authority Key Identifier: 
                A4:FD:B9:39:1B:81:B3:AA:EB:88:1D:D4:81:A9:B5:11:70:CC:A7:E1
            Authority Information Access: 
                OCSP - URI:http://server.w1.fi:8888/
            X509v3 Extended Key Usage: 
                TLS Web Server Authentication
    Signature Algorithm: sha256WithRSAEncryption
    Signature Value:
        41:59:17:46:54:33:fd:33:0c:e4:9c:4b:55:d7:b3:be:5a:0e:
        10:3c:e6:f4:d0:74:e0:8a:e9:13:8b:06:f4:94:8b:20:bf:52:
        69:b4:8f:1c:f7:94:e9:5f:c0:bd:63:11:37:0d:96:56:fc:15:
        24:1e:59:f1:bc:e5:75:ec:72:8d:f8:ad:34:c4:3d:4a:2f:18:
        8c:4b:f1:9d:9f:64:55:4c:ff:1a:90:47:e1:09:04:89:bd:8e:
        cd:cc:39:56:ee:ba:8d:76:ed:c7:c8:34:00:d7:11:c8:f3:5e:
        85:ae:6d:b0:14:b3:3a:04:5d:ec:58:35:8c:2d:6a:25:38:c6:
        e4:f8:0c:53:9f:74:8f:9c:b4:11:d3:44:6a:4c:13:e1:2e:c4:
        05:83:cc:a4:b0:32:03:e2:b5:58:b2:c7:e7:f2:28:18:59:19:
        8e:7e:81:75:46:21:38:df:14:f7:a5:4d:70:ad:8b:7a:d8:46:
        16:3a:71:13:7f:98:41:91:02:88:dc:75:95:8a:b1:57:3a:5a:
        a2:74:ce:f1:14:6d:14:9c:0e:ae:c9:99:8f:cf:29:28:a6:6b:
        b5:c9:80:4d:0b:bb:19:6f:23:69:64:3c:b7:89:a0:63:30:ed:
        0b:56:41:d0:56:3f:ed:0f:eb:07:51:29:7d:21:a4:ff:0f:28:
        80:3b:bb:c1
-----BEGIN CERTIFICATE-----
MIIDlDCCAnygAwIBAgIJANjT46bL481/MA0GCSqGSIb3DQEBCwUAMEExCzAJBgNV
BAYTAkZJMRAwDgYDVQQHDAdUdXVzdWxhMQ4wDAYDVQQKDAV3MS5maTEQMA4GA1UE
AwwHUm9vdCBDQTAeFw0yMDAxMDEwMDAwMDBaFw0yMDAxMDIwMDAwMDBaMDUxCzAJ
BgNVBAYTAkZJMQ4wDAYDVQQKDAV3MS5maTEWMBQGA1UEAwwNc2VydmVyNC53MS5m
aTCCASIwDQYJKoZIhvcNAQEBBQADggEPADCCAQoCggEBALB38T5m5/wLUfnYo64v
9kp1OD7UR3vWJDK0yNng0KUS9ImniQHZVEPOgUq97RbzfMFnNotzTSGR50t+dMU7
FbjGRn6popHD9ZCzz/kM67pv7rmrdz0Dnp13B7+XatRNttr9NlQl4wkmiX+hEcH2
3L5cV6jmRVc9mBQGcqzpyIEGOJzPzQoOeE6eexDCYaVD7zQW3zzgo0R3SM2+5HnL
MTmfU92jDnZabCReVjWbon2znkLxYZzonhy4mhAeMikhyzAW4AMR+YjyjwSl5qec
c+GT2FEtu0WDj7aTQTlBhF9LrQAlkT0WCuvwuJLgXHVlhRfSgOZeZqKk38cIdjNJ
zx0CAwEAAaOBmjCBlzAJBgNVHRMEAjAAMB0GA1UdDgQWBBQhsDHGFNS9XN9wJFE0
npP1GLMcoTAfBgNVHSMEGDAWgBSk/bk5G4GzquuIHdSBqbURcMyn4TA1BggrBgEF
BQcBAQQpMCcwJQYIKwYBBQUHMAGGGWh0dHA6Ly9zZXJ2ZXIudzEuZmk6ODg4OC8w
EwYDVR0lBAwwCgYIKwYBBQUHAwEwDQYJKoZIhvcNAQELBQADggEBAEFZF0ZUM/0z
DOScS1XXs75aDhA85vTQdOCK6ROLBvSUiyC/Umm0jxz3lOlfwL1jETcNllb8FSQe
WfG85XXsco34rTTEPUovGIxL8Z2fZFVM/xqQR+EJBIm9js3MOVbuuo127cfINADX
EcjzXoWubbAUszoEXexYNYwtaiU4xuT4DFOfdI+ctBHTRGpME+EuxAWDzKSwMgPi
tViyx+fyKBhZGY5+gXVGITjfFPelTXCti3rYRhY6cRN/mEGRAojcdZWKsVc6WqJ0
zvEUbRScDq7JmY/PKSima7XJgE0LuxlvI2lkPLeJoGMw7QtWQdBWP+0P6wdRKX0h
pP8PKIA7u8E=
-----END CERTIFICATE-----
