Certificate:
    Data:
        Version: 3 (0x2)
        Serial Number:
            d8:d3:e3:a6:cb:e3:cd:85
        Signature Algorithm: sha256WithRSAEncryption
        Issuer: C=FI, L=Tuusula, O=w1.fi, CN=Root CA
        Validity
            Not Before: Apr 18 08:02:42 2023 GMT
            Not After : Apr 17 08:02:42 2024 GMT
        Subject: C=FI, O=w1.fi, CN=Test User
        Subject Public Key Info:
            Public Key Algorithm: rsaEncryption
                Public-Key: (2048 bit)
                Modulus:
                    00:bc:24:08:d9:07:6d:19:0e:94:5c:6b:d9:8a:84:
                    1b:03:22:e2:1a:06:42:d3:0b:60:8d:5f:31:04:06:
                    fa:a2:40:6a:0c:24:29:58:cd:83:bf:3a:9d:7f:37:
                    0d:4d:27:5d:d5:57:57:1c:f3:be:75:3f:3a:4c:44:
                    6f:02:2f:5b:8b:2c:b0:5c:47:29:19:31:08:d1:28:
                    f5:1e:9c:5b:9c:b7:e7:6b:40:35:10:3e:7f:66:67:
                    16:a1:4e:68:8a:71:cc:32:58:e3:08:87:a2:2a:07:
                    2d:7f:73:f6:43:e5:7f:f4:f6:74:ae:27:e8:d2:5c:
                    ae:9b:82:d9:a5:2a:72:76:84:2f:e3:62:aa:41:1e:
                    de:33:b7:64:f8:79:6f:fa:09:b5:bc:b0:8c:cd:34:
                    82:2d:c4:10:55:89:ea:6c:38:92:fe:61:d6:64:84:
                    04:d4:0a:37:32:37:8d:c3:55:d1:fc:ab:b8:55:06:
                    a9:00:4f:31:e2:42:f1:e7:b4:2e:9c:45:0d:dc:a9:
                    f9:ad:b2:77:c1:f0:b1:c3:a2:5a:26:90:bd:19:2f:
                    46:1d:a5:21:3d:f0:35:62:94:c8:cf:33:3f:d8:a2:
                    5d:df:cc:58:00:08:8d:ed:b1:04:c5:2b:3f:1a:15:
                    f6:92:08:d4:f1:42:cd:6c:db:f2:ff:e0:6e:69:84:
                    d8:8b
                Exponent: 65537 (0x10001)
        X509v3 extensions:
            X509v3 Basic Constraints: 
                CA:FALSE
            X509v3 Subject Key Identifier: 
                FB:85:00:A8:DF:D6:0C:0E:A7:E3:39:61:D9:BE:CE:2A:EF:6D:28:D8
            X509v3 Authority Key Identifier: 
                A4:FD:B9:39:1B:81:B3:AA:EB:88:1D:D4:81:A9:B5:11:70:CC:A7:E1
            Authority Information Access: 
                OCSP - URI:http://server.w1.fi:8888/
            X509v3 Extended Key Usage: 
                TLS Web Client Authentication
    Signature Algorithm: sha256WithRSAEncryption
    Signature Value:
        3f:b7:e2:46:d1:32:4c:6a:9a:91:1f:00:24:ed:dc:30:23:7f:
        8c:44:5c:ea:ff:f2:07:ff:a7:75:61:73:41:0a:90:a7:dc:42:
        e7:89:b0:10:ac:36:cb:4a:d7:fd:7d:cc:9d:d3:18:4e:29:1a:
        bb:a8:22:7f:a1:95:83:b8:7d:19:b3:26:17:5b:5b:ed:80:8c:
        f7:bd:27:b4:57:6a:b8:5c:49:e3:f7:39:5e:d0:e7:18:e2:ca:
        2f:bc:0f:2a:c5:fb:6e:69:fa:7b:15:df:21:f3:f4:d2:10:bc:
        e0:89:51:1b:35:85:a3:bf:47:4f:0d:b8:34:86:66:f0:ee:5a:
        90:49:d2:93:e1:10:f8:b0:fa:93:42:a2:e7:43:0a:c9:69:b5:
        f9:d6:b8:cf:58:36:6a:8a:06:24:8f:34:a5:63:77:8e:1c:16:
        30:74:b9:82:72:91:c3:91:0f:68:cf:f0:24:26:d1:c8:b1:3c:
        03:cb:b0:63:62:9a:2b:69:e9:0f:6e:80:39:ff:3c:3e:6b:b6:
        d6:be:95:b9:fc:2c:ab:f7:d3:14:d1:c9:b1:53:31:8d:55:d0:
        52:40:52:a0:82:7f:01:4f:24:c1:dd:d3:d2:7f:92:6a:2e:d3:
        41:b7:4f:52:ef:1b:34:b5:08:55:7d:6c:15:f4:4f:cc:18:3b:
        62:f3:61:d5
-----BEGIN CERTIFICATE-----
MIIDkDCCAnigAwIBAgIJANjT46bL482FMA0GCSqGSIb3DQEBCwUAMEExCzAJBgNV
BAYTAkZJMRAwDgYDVQQHDAdUdXVzdWxhMQ4wDAYDVQQKDAV3MS5maTEQMA4GA1UE
AwwHUm9vdCBDQTAeFw0yMzA0MTgwODAyNDJaFw0yNDA0MTcwODAyNDJaMDExCzAJ
BgNVBAYTAkZJMQ4wDAYDVQQKDAV3MS5maTESMBAGA1UEAwwJVGVzdCBVc2VyMIIB
IjANBgkqhkiG9w0BAQEFAAOCAQ8AMIIBCgKCAQEAvCQI2QdtGQ6UXGvZioQbAyLi
GgZC0wtgjV8xBAb6okBqDCQpWM2DvzqdfzcNTSdd1VdXHPO+dT86TERvAi9biyyw
XEcpGTEI0Sj1HpxbnLfna0A1ED5/ZmcWoU5oinHMMljjCIeiKgctf3P2Q+V/9PZ0
rifo0lyum4LZpSpydoQv42KqQR7eM7dk+Hlv+gm1vLCMzTSCLcQQVYnqbDiS/mHW
ZIQE1Ao3MjeNw1XR/Ku4VQapAE8x4kLx57QunEUN3Kn5rbJ3wfCxw6JaJpC9GS9G
HaUhPfA1YpTIzzM/2KJd38xYAAiN7bEExSs/GhX2kgjU8ULNbNvy/+BuaYTYiwID
AQABo4GaMIGXMAkGA1UdEwQCMAAwHQYDVR0OBBYEFPuFAKjf1gwOp+M5Ydm+zirv
bSjYMB8GA1UdIwQYMBaAFKT9uTkbgbOq64gd1IGptRFwzKfhMDUGCCsGAQUFBwEB
BCkwJzAlBggrBgEFBQcwAYYZaHR0cDovL3NlcnZlci53MS5maTo4ODg4LzATBgNV
HSUEDDAKBggrBgEFBQcDAjANBgkqhkiG9w0BAQsFAAOCAQEAP7fiRtEyTGqakR8A
JO3cMCN/jERc6v/yB/+ndWFzQQqQp9xC54mwEKw2y0rX/X3MndMYTikau6gif6GV
g7h9GbMmF1tb7YCM970ntFdquFxJ4/c5XtDnGOLKL7wPKsX7bmn6exXfIfP00hC8
4IlRGzWFo79HTw24NIZm8O5akEnSk+EQ+LD6k0Ki50MKyWm1+da4z1g2aooGJI80
pWN3jhwWMHS5gnKRw5EPaM/wJCbRyLE8A8uwY2KaK2npD26AOf88Pmu21r6Vufws
q/fTFNHJsVMxjVXQUkBSoIJ/AU8kwd3T0n+Sai7TQbdPUu8bNLUIVX1sFfRPzBg7
YvNh1Q==
-----END CERTIFICATE-----
