Certificate:
    Data:
        Version: 3 (0x2)
        Serial Number:
            d8:d3:e3:a6:cb:e3:cd:88
        Signature Algorithm: sha256WithRSAEncryption
        Issuer: C=FI, L=Tuusula, O=w1.fi, CN=Root CA
        Validity
            Not Before: Apr 17 18:25:37 2024 GMT
            Not After : Apr 17 18:25:37 2025 GMT
        Subject: C=FI, O=w1.fi, CN=server3.w1.fi
        Subject Public Key Info:
            Public Key Algorithm: rsaEncryption
                Public-Key: (2048 bit)
                Modulus:
                    00:c2:eb:ad:04:6f:4c:eb:23:b8:92:4e:75:dc:00:
                    d0:0d:d9:ad:09:21:f8:12:4a:2d:cd:db:7d:63:a1:
                    32:12:8e:b8:e3:bd:df:95:39:3a:17:65:54:f8:20:
                    d6:71:37:7d:b7:b4:72:31:7a:7a:3d:ba:74:72:f3:
                    ac:9d:16:38:35:1b:7d:50:3b:ad:96:5d:a7:c0:76:
                    0b:bb:4c:06:a8:d0:f7:2d:3d:94:a5:14:26:1a:11:
                    d8:42:1b:2d:4e:6e:60:9d:6a:cf:22:db:36:65:e2:
                    17:35:bc:69:2e:ab:30:e5:cd:fc:9a:e4:4f:0f:d1:
                    01:c3:e6:33:71:31:cd:6f:da:8c:21:9d:f7:1b:d1:
                    ed:7e:39:7a:fd:69:a3:88:1c:e6:f6:d3:3b:1a:1e:
                    d3:70:c3:ad:35:2a:22:a4:de:60:90:37:5d:e7:e0:
                    ce:9b:7d:4c:b5:cb:41:1b:9c:96:51:df:58:4d:b7:
                    67:da:95:25:60:8a:ff:6c:62:84:da:d6:24:b9:65:
                    d9:7a:59:f8:c8:bd:03:be:f6:17:d8:0e:86:ae:9a:
                    4c:7d:53:f6:b1:0e:82:cd:06:61:77:dd:46:5c:fd:
                    45:6a:f2:e8:22:ca:63:8b:d3:1c:f6:4f:10:ec:ea:
                    1a:08:1e:38:3d:80:6c:a3:48:47:f2:16:2a:07:5b:
                    f7:89
                Exponent: 65537 (0x10001)
        X509v3 extensions:
            X509v3 Basic Constraints: 
                CA:FALSE
            X509v3 Subject Key Identifier: 
                5E:84:D6:31:98:17:71:F8:63:5C:32:5B:7D:33:C0:D4:FA:36:A7:6A
            X509v3 Authority Key Identifier: 
                A4:FD:B9:39:1B:81:B3:AA:EB:88:1D:D4:81:A9:B5:11:70:CC:A7:E1
            Authority Information Access: 
                OCSP - URI:http://server.w1.fi:8888/
            X509v3 Extended Key Usage: 
                TLS Web Server Authentication
    Signature Algorithm: sha256WithRSAEncryption
    Signature Value:
        4d:3a:25:75:cf:bf:3a:d4:c1:8c:db:40:02:ef:54:0e:68:1f:
        1a:5f:41:35:51:3b:da:7d:73:a7:b3:a1:78:47:ab:8c:74:c4:
        3b:4e:7a:36:90:ad:f1:96:de:aa:30:fd:48:47:23:aa:08:d5:
        2a:e0:85:f4:cf:10:f8:b4:06:b8:cb:53:90:22:e5:0a:03:2d:
        43:da:6a:c9:6c:86:93:ab:24:38:73:29:2c:7f:21:84:42:3c:
        7e:65:aa:74:46:4b:f7:29:d4:47:16:03:72:09:e4:ac:7e:39:
        ac:ed:a4:ef:81:48:a2:8d:e0:bd:98:e2:7a:c0:d8:85:28:be:
        f8:5e:87:19:75:f5:10:5b:83:3b:37:ed:b9:9a:0b:b4:fb:5d:
        8e:13:35:6c:92:76:ed:55:17:72:aa:a9:99:ab:9e:1c:e7:83:
        60:f6:34:4e:8b:8d:b6:fe:52:23:5b:e5:f3:8b:c9:87:cd:97:
        f3:31:03:a0:87:6c:53:7d:6d:ed:1d:f6:4c:3b:aa:5b:fb:fb:
        36:ed:0d:b5:6b:4c:ce:b4:f1:81:2b:55:42:79:9c:23:c3:01:
        c1:a1:d2:14:cc:df:70:dc:2b:a6:c9:a2:c2:0d:d1:e5:7d:65:
        60:43:84:d3:4f:a0:a3:7b:8e:e6:6e:92:8e:44:81:ef:65:e7:
        2e:55:3c:d3
-----BEGIN CERTIFICATE-----
MIIDlDCCAnygAwIBAgIJANjT46bL482IMA0GCSqGSIb3DQEBCwUAMEExCzAJBgNV
BAYTAkZJMRAwDgYDVQQHDAdUdXVzdWxhMQ4wDAYDVQQKDAV3MS5maTEQMA4GA1UE
AwwHUm9vdCBDQTAeFw0yNDA0MTcxODI1MzdaFw0yNTA0MTcxODI1MzdaMDUxCzAJ
BgNVBAYTAkZJMQ4wDAYDVQQKDAV3MS5maTEWMBQGA1UEAwwNc2VydmVyMy53MS5m
aTCCASIwDQYJKoZIhvcNAQEBBQADggEPADCCAQoCggEBAMLrrQRvTOsjuJJOddwA
0A3ZrQkh+BJKLc3bfWOhMhKOuOO935U5OhdlVPgg1nE3fbe0cjF6ej26dHLzrJ0W
ODUbfVA7rZZdp8B2C7tMBqjQ9y09lKUUJhoR2EIbLU5uYJ1qzyLbNmXiFzW8aS6r
MOXN/JrkTw/RAcPmM3ExzW/ajCGd9xvR7X45ev1po4gc5vbTOxoe03DDrTUqIqTe
YJA3Xefgzpt9TLXLQRucllHfWE23Z9qVJWCK/2xihNrWJLll2XpZ+Mi9A772F9gO
hq6aTH1T9rEOgs0GYXfdRlz9RWry6CLKY4vTHPZPEOzqGggeOD2AbKNIR/IWKgdb
94kCAwEAAaOBmjCBlzAJBgNVHRMEAjAAMB0GA1UdDgQWBBRehNYxmBdx+GNcMlt9
M8DU+janajAfBgNVHSMEGDAWgBSk/bk5G4GzquuIHdSBqbURcMyn4TA1BggrBgEF
BQcBAQQpMCcwJQYIKwYBBQUHMAGGGWh0dHA6Ly9zZXJ2ZXIudzEuZmk6ODg4OC8w
EwYDVR0lBAwwCgYIKwYBBQUHAwEwDQYJKoZIhvcNAQELBQADggEBAE06JXXPvzrU
wYzbQALvVA5oHxpfQTVRO9p9c6ezoXhHq4x0xDtOejaQrfGW3qow/UhHI6oI1Srg
hfTPEPi0BrjLU5Ai5QoDLUPaaslshpOrJDhzKSx/IYRCPH5lqnRGS/cp1EcWA3IJ
5Kx+OaztpO+BSKKN4L2Y4nrA2IUovvhehxl19RBbgzs37bmaC7T7XY4TNWySdu1V
F3KqqZmrnhzng2D2NE6Ljbb+UiNb5fOLyYfNl/MxA6CHbFN9be0d9kw7qlv7+zbt
DbVrTM608YErVUJ5nCPDAcGh0hTM33DcK6bJosIN0eV9ZWBDhNNPoKN7juZuko5E
ge9l5y5VPNM=
-----END CERTIFICATE-----
