Certificate:
    Data:
        Version: 3 (0x2)
        Serial Number:
            ad:8c:09:e8:fb:a2:88:d4
        Signature Algorithm: sha384WithRSAEncryption
        Issuer: C=FI, L=Helsinki, O=w1.fi, CN=Suite B RSA 3k Root CA
        Validity
            Not Before: Apr 17 18:26:29 2024 GMT
            Not After : Apr 17 18:26:29 2026 GMT
        Subject: C=FI, O=w1.fi, CN=rsa3072.server.w1.fi
        Subject Public Key Info:
            Public Key Algorithm: rsaEncryption
                Public-Key: (3072 bit)
                Modulus:
                    00:fe:a9:5c:59:8f:aa:80:cb:b8:4a:89:f9:3a:e8:
                    7d:24:51:b8:f2:05:c6:42:e0:68:b5:a4:f1:7e:8a:
                    31:a2:e0:0c:58:c5:80:20:cb:20:f0:0e:c1:6b:4d:
                    e1:d7:eb:cc:45:48:c9:b0:0f:8f:ef:80:db:1b:60:
                    02:af:ef:e8:0a:29:c8:04:df:70:92:e9:f1:dc:6a:
                    47:3b:5a:6f:10:e6:19:4d:93:92:d0:0a:8e:a2:4d:
                    32:9f:13:c8:34:6c:1a:4c:ec:a4:ed:89:2a:03:fb:
                    18:0d:7f:0d:de:3e:7f:d8:5d:27:a5:e1:7b:62:63:
                    71:61:45:52:f9:47:10:1d:28:c2:5d:73:fb:9d:03:
                    68:bf:6d:a4:12:12:74:c7:d0:b8:87:43:b3:67:87:
                    ce:6e:7b:58:1f:2f:32:eb:10:1f:e7:74:5c:3a:d9:
                    8c:18:c8:04:95:6b:e3:3b:25:4c:0a:db:99:f3:59:
                    b0:8e:7a:de:fa:e4:db:50:15:90:a2:30:e2:8a:c6:
                    a9:06:30:e3:d7:29:dd:26:a8:95:6e:6e:f5:c4:42:
                    d0:f7:7e:40:4d:3d:fd:ad:2f:cf:40:dd:d4:c0:6b:
                    80:a2:34:7e:05:2f:bf:32:44:0b:d4:78:6d:2a:12:
                    08:7c:84:b4:4d:51:5a:e5:84:6e:17:26:43:8c:83:
                    6b:16:f3:5f:fa:b3:9f:84:d3:2b:ab:f3:3e:2c:23:
                    65:b9:11:76:e1:85:12:ce:bb:03:38:59:82:bf:4c:
                    77:ba:3b:90:51:9c:67:76:b0:1e:74:1e:4c:c8:b1:
                    35:d6:37:29:dc:7e:c3:89:cc:86:9e:08:31:9c:70:
                    ea:5a:6c:87:92:53:eb:99:fb:33:d2:32:f1:81:31:
                    78:a0:c9:7d:6d:d9:6b:07:fa:c8:4a:67:57:2c:8c:
                    a6:ce:e5:7e:36:95:f1:09:bd:df:bf:c8:53:3d:21:
                    67:fd:93:cb:b2:7a:b5:56:61:9e:2f:ce:69:fa:fa:
                    56:0a:6b:9c:69:78:f7:4e:54:73
                Exponent: 65537 (0x10001)
        X509v3 extensions:
            X509v3 Basic Constraints: critical
                CA:FALSE
            X509v3 Subject Key Identifier: 
                82:D7:75:95:94:9E:35:F7:1F:91:6D:37:9F:26:4F:3D:9D:C1:6E:96
            X509v3 Authority Key Identifier: 
                21:F7:EF:DA:C3:34:3A:ED:CD:D5:50:C0:B3:BA:09:EE:3F:80:D7:70
            X509v3 Subject Alternative Name: critical
                DNS:rsa3072.server.w1.fi
            X509v3 Extended Key Usage: critical
                TLS Web Server Authentication
            X509v3 Key Usage: 
                Digital Signature, Key Encipherment
    Signature Algorithm: sha384WithRSAEncryption
    Signature Value:
        b6:95:90:04:e3:37:30:97:1a:52:09:07:60:46:5e:87:da:08:
        5e:7c:34:ad:d0:aa:a5:1b:64:0f:15:b6:21:e7:0d:2d:49:b6:
        47:de:03:54:90:6a:4f:2f:4c:87:9a:5a:d9:63:a8:56:8d:de:
        8a:4d:07:4c:c1:52:3f:3c:21:4c:20:33:53:8b:9c:86:aa:02:
        4e:4f:7d:b8:4b:18:9a:05:08:03:16:d6:58:b0:a5:4b:15:89:
        06:28:93:11:7e:4d:bc:1c:e8:67:b3:f0:2e:73:65:9b:6a:77:
        6e:e4:24:80:26:b0:c0:47:a2:20:87:6c:44:88:14:88:88:be:
        4a:df:ac:1f:a7:2e:49:5e:39:c0:f5:4c:e9:64:25:df:27:18:
        47:fb:64:03:00:06:f6:20:51:73:2a:78:f0:d7:56:fb:f9:1c:
        29:fb:b9:2c:ff:49:20:81:18:2d:95:e0:e5:54:aa:ca:7b:60:
        f3:ed:1f:54:76:15:1a:52:0c:63:af:cd:25:d9:6f:13:4e:47:
        e6:08:29:b8:78:35:6d:8e:ac:90:36:60:bc:0a:0b:51:20:f0:
        15:31:1a:7a:38:05:98:b0:69:8e:fe:ed:1f:88:4c:18:44:83:
        98:81:9b:21:c8:c2:fa:8f:c1:aa:ff:3e:42:18:e8:35:2c:be:
        b1:c2:95:b6:82:c1:cb:2a:d6:90:4b:77:1e:28:d6:14:f4:fe:
        e1:41:65:f6:07:59:f8:6c:a9:58:ba:45:00:f9:63:31:45:f6:
        9a:00:1d:40:2d:ea:31:b4:ba:52:06:1b:61:c0:62:3a:37:c7:
        fa:a6:85:27:66:bd:1b:a0:23:0c:6d:d6:04:9a:71:4c:72:2c:
        94:5a:0a:bd:44:24:a2:44:22:c0:31:a5:50:63:dd:66:a5:f8:
        2d:7b:28:af:36:e9:ee:af:3b:5c:af:8a:f1:81:1a:35:cd:86:
        db:3e:e8:26:56:62:f7:fc:5a:b8:f2:a7:50:b2:23:69:8d:14:
        55:e0:e6:b4:05:7a
-----BEGIN CERTIFICATE-----
MIIEqzCCAxOgAwIBAgIJAK2MCej7oojUMA0GCSqGSIb3DQEBDAUAMFExCzAJBgNV
BAYTAkZJMREwDwYDVQQHDAhIZWxzaW5raTEOMAwGA1UECgwFdzEuZmkxHzAdBgNV
BAMMFlN1aXRlIEIgUlNBIDNrIFJvb3QgQ0EwHhcNMjQwNDE3MTgyNjI5WhcNMjYw
NDE3MTgyNjI5WjA8MQswCQYDVQQGEwJGSTEOMAwGA1UECgwFdzEuZmkxHTAbBgNV
BAMMFHJzYTMwNzIuc2VydmVyLncxLmZpMIIBojANBgkqhkiG9w0BAQEFAAOCAY8A
MIIBigKCAYEA/qlcWY+qgMu4Son5Ouh9JFG48gXGQuBotaTxfooxouAMWMWAIMsg
8A7Ba03h1+vMRUjJsA+P74DbG2ACr+/oCinIBN9wkunx3GpHO1pvEOYZTZOS0AqO
ok0ynxPINGwaTOyk7YkqA/sYDX8N3j5/2F0npeF7YmNxYUVS+UcQHSjCXXP7nQNo
v22kEhJ0x9C4h0OzZ4fObntYHy8y6xAf53RcOtmMGMgElWvjOyVMCtuZ81mwjnre
+uTbUBWQojDiisapBjDj1yndJqiVbm71xELQ935ATT39rS/PQN3UwGuAojR+BS+/
MkQL1HhtKhIIfIS0TVFa5YRuFyZDjINrFvNf+rOfhNMrq/M+LCNluRF24YUSzrsD
OFmCv0x3ujuQUZxndrAedB5MyLE11jcp3H7DicyGnggxnHDqWmyHklPrmfsz0jLx
gTF4oMl9bdlrB/rISmdXLIymzuV+NpXxCb3fv8hTPSFn/ZPLsnq1VmGeL85p+vpW
CmucaXj3TlRzAgMBAAGjgZowgZcwDAYDVR0TAQH/BAIwADAdBgNVHQ4EFgQUgtd1
lZSeNfcfkW03nyZPPZ3BbpYwHwYDVR0jBBgwFoAUIffv2sM0Ou3N1VDAs7oJ7j+A
13AwIgYDVR0RAQH/BBgwFoIUcnNhMzA3Mi5zZXJ2ZXIudzEuZmkwFgYDVR0lAQH/
BAwwCgYIKwYBBQUHAwEwCwYDVR0PBAQDAgWgMA0GCSqGSIb3DQEBDAUAA4IBgQC2
lZAE4zcwlxpSCQdgRl6H2ghefDSt0KqlG2QPFbYh5w0tSbZH3gNUkGpPL0yHmlrZ
Y6hWjd6KTQdMwVI/PCFMIDNTi5yGqgJOT324SxiaBQgDFtZYsKVLFYkGKJMRfk28
HOhns/Auc2Wbandu5CSAJrDAR6Igh2xEiBSIiL5K36wfpy5JXjnA9UzpZCXfJxhH
+2QDAAb2IFFzKnjw11b7+Rwp+7ks/0kggRgtleDlVKrKe2Dz7R9UdhUaUgxjr80l
2W8TTkfmCCm4eDVtjqyQNmC8CgtRIPAVMRp6OAWYsGmO/u0fiEwYRIOYgZshyML6
j8Gq/z5CGOg1LL6xwpW2gsHLKtaQS3ceKNYU9P7hQWX2B1n4bKlYukUA+WMxRfaa
AB1ALeoxtLpSBhthwGI6N8f6poUnZr0boCMMbdYEmnFMciyUWgq9RCSiRCLAMaVQ
Y91mpfgteyivNunurztcr4rxgRo1zYbbPugmVmL3/Fq48qdQsiNpjRRV4Oa0BXo=
-----END CERTIFICATE-----
