Certificate:
    Data:
        Version: 3 (0x2)
        Serial Number:
            d8:d3:e3:a6:cb:e3:cd:89
        Signature Algorithm: sha256WithRSAEncryption
        Issuer: C=FI, L=Tuusula, O=w1.fi, CN=Root CA
        Validity
            Not Before: Jan  1 00:00:00 2020 GMT
            Not After : Jan  2 00:00:00 2020 GMT
        Subject: C=FI, O=w1.fi, CN=server4.w1.fi
        Subject Public Key Info:
            Public Key Algorithm: rsaEncryption
                Public-Key: (2048 bit)
                Modulus:
                    00:b0:77:f1:3e:66:e7:fc:0b:51:f9:d8:a3:ae:2f:
                    f6:4a:75:38:3e:d4:47:7b:d6:24:32:b4:c8:d9:e0:
                    d0:a5:12:f4:89:a7:89:01:d9:54:43:ce:81:4a:bd:
                    ed:16:f3:7c:c1:67:36:8b:73:4d:21:91:e7:4b:7e:
                    74:c5:3b:15:b8:c6:46:7e:a9:a2:91:c3:f5:90:b3:
                    cf:f9:0c:eb:ba:6f:ee:b9:ab:77:3d:03:9e:9d:77:
                    07:bf:97:6a:d4:4d:b6:da:fd:36:54:25:e3:09:26:
                    89:7f:a1:11:c1:f6:dc:be:5c:57:a8:e6:45:57:3d:
                    98:14:06:72:ac:e9:c8:81:06:38:9c:cf:cd:0a:0e:
                    78:4e:9e:7b:10:c2:61:a5:43:ef:34:16:df:3c:e0:
                    a3:44:77:48:cd:be:e4:79:cb:31:39:9f:53:dd:a3:
                    0e:76:5a:6c:24:5e:56:35:9b:a2:7d:b3:9e:42:f1:
                    61:9c:e8:9e:1c:b8:9a:10:1e:32:29:21:cb:30:16:
                    e0:03:11:f9:88:f2:8f:04:a5:e6:a7:9c:73:e1:93:
                    d8:51:2d:bb:45:83:8f:b6:93:41:39:41:84:5f:4b:
                    ad:00:25:91:3d:16:0a:eb:f0:b8:92:e0:5c:75:65:
                    85:17:d2:80:e6:5e:66:a2:a4:df:c7:08:76:33:49:
                    cf:1d
                Exponent: 65537 (0x10001)
        X509v3 extensions:
            X509v3 Basic Constraints: 
                CA:FALSE
            X509v3 Subject Key Identifier: 
                21:B0:31:C6:14:D4:BD:5C:DF:70:24:51:34:9E:93:F5:18:B3:1C:A1
            X509v3 Authority Key Identifier: 
                A4:FD:B9:39:1B:81:B3:AA:EB:88:1D:D4:81:A9:B5:11:70:CC:A7:E1
            Authority Information Access: 
                OCSP - URI:http://server.w1.fi:8888/
            X509v3 Extended Key Usage: 
                TLS Web Server Authentication
    Signature Algorithm: sha256WithRSAEncryption
    Signature Value:
        9e:c1:46:c2:90:83:1e:a0:4c:df:9c:76:28:94:e2:84:49:9e:
        cf:2f:8c:20:11:9f:0a:3a:f2:52:7d:ba:06:b3:d9:50:3f:2f:
        c4:10:2f:81:57:f6:c4:eb:95:16:18:6d:e0:39:3e:fd:73:8e:
        a2:e9:1b:e4:7a:f9:7e:39:d6:9a:71:f4:62:19:90:57:7c:89:
        e2:c6:97:db:be:80:15:83:d6:4a:49:07:ae:0a:1b:21:ee:1b:
        f8:e3:41:2d:cc:90:69:2d:98:2a:38:7b:e6:77:d9:6c:6f:17:
        c9:1f:66:7d:b3:fe:ec:19:87:b8:95:49:25:2e:df:ae:60:11:
        9e:23:1a:3a:34:78:0a:19:02:8f:bd:2c:1f:07:71:d1:87:1f:
        93:79:8f:df:8b:30:73:47:ee:da:aa:0b:85:38:c7:af:db:71:
        87:b4:c8:9a:3d:ec:f0:28:0b:38:65:fe:91:78:97:79:6c:ed:
        3a:43:3a:ef:8c:25:17:51:7a:50:66:28:0f:eb:7e:69:26:cc:
        cf:c1:a6:ef:a1:5c:14:bf:cc:f9:96:ab:61:ca:80:3d:8e:79:
        2e:04:52:b0:f3:21:c4:26:a1:ed:7d:20:aa:e3:38:d1:d8:0d:
        fc:dd:92:34:dd:93:2d:6e:ae:68:10:79:79:f0:58:ed:b9:0c:
        29:52:74:92
-----BEGIN CERTIFICATE-----
MIIDlDCCAnygAwIBAgIJANjT46bL482JMA0GCSqGSIb3DQEBCwUAMEExCzAJBgNV
BAYTAkZJMRAwDgYDVQQHDAdUdXVzdWxhMQ4wDAYDVQQKDAV3MS5maTEQMA4GA1UE
AwwHUm9vdCBDQTAeFw0yMDAxMDEwMDAwMDBaFw0yMDAxMDIwMDAwMDBaMDUxCzAJ
BgNVBAYTAkZJMQ4wDAYDVQQKDAV3MS5maTEWMBQGA1UEAwwNc2VydmVyNC53MS5m
aTCCASIwDQYJKoZIhvcNAQEBBQADggEPADCCAQoCggEBALB38T5m5/wLUfnYo64v
9kp1OD7UR3vWJDK0yNng0KUS9ImniQHZVEPOgUq97RbzfMFnNotzTSGR50t+dMU7
FbjGRn6popHD9ZCzz/kM67pv7rmrdz0Dnp13B7+XatRNttr9NlQl4wkmiX+hEcH2
3L5cV6jmRVc9mBQGcqzpyIEGOJzPzQoOeE6eexDCYaVD7zQW3zzgo0R3SM2+5HnL
MTmfU92jDnZabCReVjWbon2znkLxYZzonhy4mhAeMikhyzAW4AMR+YjyjwSl5qec
c+GT2FEtu0WDj7aTQTlBhF9LrQAlkT0WCuvwuJLgXHVlhRfSgOZeZqKk38cIdjNJ
zx0CAwEAAaOBmjCBlzAJBgNVHRMEAjAAMB0GA1UdDgQWBBQhsDHGFNS9XN9wJFE0
npP1GLMcoTAfBgNVHSMEGDAWgBSk/bk5G4GzquuIHdSBqbURcMyn4TA1BggrBgEF
BQcBAQQpMCcwJQYIKwYBBQUHMAGGGWh0dHA6Ly9zZXJ2ZXIudzEuZmk6ODg4OC8w
EwYDVR0lBAwwCgYIKwYBBQUHAwEwDQYJKoZIhvcNAQELBQADggEBAJ7BRsKQgx6g
TN+cdiiU4oRJns8vjCARnwo68lJ9ugaz2VA/L8QQL4FX9sTrlRYYbeA5Pv1zjqLp
G+R6+X451ppx9GIZkFd8ieLGl9u+gBWD1kpJB64KGyHuG/jjQS3MkGktmCo4e+Z3
2WxvF8kfZn2z/uwZh7iVSSUu365gEZ4jGjo0eAoZAo+9LB8HcdGHH5N5j9+LMHNH
7tqqC4U4x6/bcYe0yJo97PAoCzhl/pF4l3ls7TpDOu+MJRdRelBmKA/rfmkmzM/B
pu+hXBS/zPmWq2HKgD2OeS4EUrDzIcQmoe19IKrjONHYDfzdkjTdky1urmgQeXnw
WO25DClSdJI=
-----END CERTIFICATE-----
