Certificate:
    Data:
        Version: 3 (0x2)
        Serial Number:
            d8:d3:e3:a6:cb:e3:cd:8b
        Signature Algorithm: sha256WithRSAEncryption
        Issuer: C=FI, L=Tuusula, O=w1.fi, CN=Root CA
        Validity
            Not Before: Apr 17 18:25:37 2024 GMT
            Not After : Apr 17 18:25:37 2025 GMT
        Subject: C=FI, O=w1.fi, CN=server6.w1.fi
        Subject Public Key Info:
            Public Key Algorithm: rsaEncryption
                Public-Key: (2048 bit)
                Modulus:
                    00:d0:23:f4:80:12:be:4a:64:4d:af:99:af:52:ef:
                    8d:f5:73:9a:1a:28:2b:92:e8:d4:90:25:3e:85:47:
                    9f:c9:c4:b9:7a:35:24:84:2f:1e:51:16:66:d3:ac:
                    31:ea:f1:63:a4:4c:ea:26:f0:fa:61:c7:9f:f2:74:
                    69:6a:78:09:c5:c9:89:74:db:6d:ba:c7:b6:b1:f0:
                    61:1f:ef:3a:1c:d5:c6:fc:95:5d:9b:37:d6:5b:cb:
                    37:93:59:ed:50:f2:6a:a2:01:5c:9e:22:af:3a:31:
                    d9:ee:eb:33:49:93:4e:46:ee:9d:7b:86:86:da:2b:
                    1d:f9:f3:a2:01:7d:0d:55:1c:3b:67:e9:c9:fb:bc:
                    a9:52:4c:4a:21:85:68:50:2f:e4:05:c1:3f:e0:b3:
                    a3:25:d4:6c:2e:61:7c:9d:d5:da:93:bb:19:fe:ea:
                    bf:f2:c8:f9:dc:de:48:54:e1:fe:d4:b5:94:5a:3f:
                    2c:2b:8c:b1:6c:ef:3a:b0:d2:0c:2c:13:75:61:db:
                    97:6b:fa:6b:f9:9d:f7:14:aa:35:72:d8:4c:0b:a1:
                    5c:08:c5:87:d4:e4:87:1d:6b:0a:50:1f:b5:0e:3f:
                    bb:36:8b:c6:e0:bd:1e:1a:e1:1c:f3:37:a4:91:65:
                    4c:43:b4:9e:cc:1b:61:68:09:bd:1e:ab:61:bd:c1:
                    91:71
                Exponent: 65537 (0x10001)
        X509v3 extensions:
            X509v3 Basic Constraints: 
                CA:FALSE
            X509v3 Subject Key Identifier: 
                AB:D2:88:CA:9C:44:26:89:2E:C0:B9:8D:46:DD:5C:69:02:9E:01:CB
            X509v3 Authority Key Identifier: 
                A4:FD:B9:39:1B:81:B3:AA:EB:88:1D:D4:81:A9:B5:11:70:CC:A7:E1
            Authority Information Access: 
                OCSP - URI:http://server.w1.fi:8888/
            X509v3 Extended Key Usage: 
                TLS Web Client Authentication, TLS Web Server Authentication
    Signature Algorithm: sha256WithRSAEncryption
    Signature Value:
        66:57:88:7e:5b:fc:3f:5d:d0:ad:f0:b7:53:89:8f:a7:47:68:
        89:90:a1:df:72:0a:6c:03:d8:b2:b5:68:e5:78:d5:30:5e:a9:
        a0:ba:8d:b5:08:4f:49:fc:07:fa:db:10:e3:0f:6d:a9:b2:14:
        82:a4:ab:92:65:a7:7a:86:28:e6:84:c5:56:41:6f:a0:ae:dd:
        18:fb:a6:f1:c0:d3:27:3a:39:fb:78:c6:5b:6d:e6:5c:93:e2:
        68:44:ed:6c:33:73:7a:fe:09:30:0d:09:19:f3:65:96:de:56:
        f9:e9:2b:6c:2e:1f:9c:dc:68:3e:60:35:a6:cb:31:3b:18:ab:
        12:6f:a1:1d:f0:38:53:d8:d8:15:04:da:e8:0e:45:df:25:f1:
        ac:01:2d:a9:73:8a:32:24:e1:27:53:b6:e8:fc:f4:bc:af:d9:
        b1:db:93:c5:75:5b:03:db:22:af:ef:7a:79:38:9a:90:b3:dd:
        da:4a:e1:9b:59:74:c4:de:5c:4c:55:c1:03:0a:77:46:3d:c4:
        17:0b:4d:f6:b4:c0:11:3f:6a:30:93:e3:94:97:17:fd:c5:19:
        f2:1a:79:db:f3:50:de:5f:3a:a5:92:3e:dd:0b:be:1d:e5:da:
        90:65:a5:b2:0f:69:52:77:1e:d7:5e:59:dc:df:20:33:2a:62:
        3e:00:b4:22
-----BEGIN CERTIFICATE-----
MIIDnjCCAoagAwIBAgIJANjT46bL482LMA0GCSqGSIb3DQEBCwUAMEExCzAJBgNV
BAYTAkZJMRAwDgYDVQQHDAdUdXVzdWxhMQ4wDAYDVQQKDAV3MS5maTEQMA4GA1UE
AwwHUm9vdCBDQTAeFw0yNDA0MTcxODI1MzdaFw0yNTA0MTcxODI1MzdaMDUxCzAJ
BgNVBAYTAkZJMQ4wDAYDVQQKDAV3MS5maTEWMBQGA1UEAwwNc2VydmVyNi53MS5m
aTCCASIwDQYJKoZIhvcNAQEBBQADggEPADCCAQoCggEBANAj9IASvkpkTa+Zr1Lv
jfVzmhooK5Lo1JAlPoVHn8nEuXo1JIQvHlEWZtOsMerxY6RM6ibw+mHHn/J0aWp4
CcXJiXTbbbrHtrHwYR/vOhzVxvyVXZs31lvLN5NZ7VDyaqIBXJ4irzox2e7rM0mT
TkbunXuGhtorHfnzogF9DVUcO2fpyfu8qVJMSiGFaFAv5AXBP+CzoyXUbC5hfJ3V
2pO7Gf7qv/LI+dzeSFTh/tS1lFo/LCuMsWzvOrDSDCwTdWHbl2v6a/md9xSqNXLY
TAuhXAjFh9Tkhx1rClAftQ4/uzaLxuC9HhrhHPM3pJFlTEO0nswbYWgJvR6rYb3B
kXECAwEAAaOBpDCBoTAJBgNVHRMEAjAAMB0GA1UdDgQWBBSr0ojKnEQmiS7AuY1G
3VxpAp4ByzAfBgNVHSMEGDAWgBSk/bk5G4GzquuIHdSBqbURcMyn4TA1BggrBgEF
BQcBAQQpMCcwJQYIKwYBBQUHMAGGGWh0dHA6Ly9zZXJ2ZXIudzEuZmk6ODg4OC8w
HQYDVR0lBBYwFAYIKwYBBQUHAwIGCCsGAQUFBwMBMA0GCSqGSIb3DQEBCwUAA4IB
AQBmV4h+W/w/XdCt8LdTiY+nR2iJkKHfcgpsA9iytWjleNUwXqmguo21CE9J/Af6
2xDjD22pshSCpKuSZad6hijmhMVWQW+grt0Y+6bxwNMnOjn7eMZbbeZck+JoRO1s
M3N6/gkwDQkZ82WW3lb56StsLh+c3Gg+YDWmyzE7GKsSb6Ed8DhT2NgVBNroDkXf
JfGsAS2pc4oyJOEnU7bo/PS8r9mx25PFdVsD2yKv73p5OJqQs93aSuGbWXTE3lxM
VcEDCndGPcQXC032tMARP2owk+OUlxf9xRnyGnnb81DeXzqlkj7dC74d5dqQZaWy
D2lSdx7XXlnc3yAzKmI+ALQi
-----END CERTIFICATE-----
