Certificate:
    Data:
        Version: 3 (0x2)
        Serial Number:
            d8:d3:e3:a6:cb:e3:cd:8f
        Signature Algorithm: sha256WithRSAEncryption
        Issuer: C=FI, L=Tuusula, O=w1.fi, CN=Root CA
        Validity
            Not Before: Apr 17 18:25:37 2024 GMT
            Not After : Apr 17 18:25:37 2025 GMT
        Subject: C=FI, O=w1.fi, CN=Test User
        Subject Public Key Info:
            Public Key Algorithm: rsaEncryption
                Public-Key: (2048 bit)
                Modulus:
                    00:bc:24:08:d9:07:6d:19:0e:94:5c:6b:d9:8a:84:
                    1b:03:22:e2:1a:06:42:d3:0b:60:8d:5f:31:04:06:
                    fa:a2:40:6a:0c:24:29:58:cd:83:bf:3a:9d:7f:37:
                    0d:4d:27:5d:d5:57:57:1c:f3:be:75:3f:3a:4c:44:
                    6f:02:2f:5b:8b:2c:b0:5c:47:29:19:31:08:d1:28:
                    f5:1e:9c:5b:9c:b7:e7:6b:40:35:10:3e:7f:66:67:
                    16:a1:4e:68:8a:71:cc:32:58:e3:08:87:a2:2a:07:
                    2d:7f:73:f6:43:e5:7f:f4:f6:74:ae:27:e8:d2:5c:
                    ae:9b:82:d9:a5:2a:72:76:84:2f:e3:62:aa:41:1e:
                    de:33:b7:64:f8:79:6f:fa:09:b5:bc:b0:8c:cd:34:
                    82:2d:c4:10:55:89:ea:6c:38:92:fe:61:d6:64:84:
                    04:d4:0a:37:32:37:8d:c3:55:d1:fc:ab:b8:55:06:
                    a9:00:4f:31:e2:42:f1:e7:b4:2e:9c:45:0d:dc:a9:
                    f9:ad:b2:77:c1:f0:b1:c3:a2:5a:26:90:bd:19:2f:
                    46:1d:a5:21:3d:f0:35:62:94:c8:cf:33:3f:d8:a2:
                    5d:df:cc:58:00:08:8d:ed:b1:04:c5:2b:3f:1a:15:
                    f6:92:08:d4:f1:42:cd:6c:db:f2:ff:e0:6e:69:84:
                    d8:8b
                Exponent: 65537 (0x10001)
        X509v3 extensions:
            X509v3 Basic Constraints: 
                CA:FALSE
            X509v3 Subject Key Identifier: 
                FB:85:00:A8:DF:D6:0C:0E:A7:E3:39:61:D9:BE:CE:2A:EF:6D:28:D8
            X509v3 Authority Key Identifier: 
                A4:FD:B9:39:1B:81:B3:AA:EB:88:1D:D4:81:A9:B5:11:70:CC:A7:E1
            Authority Information Access: 
                OCSP - URI:http://server.w1.fi:8888/
            X509v3 Extended Key Usage: 
                TLS Web Client Authentication
    Signature Algorithm: sha256WithRSAEncryption
    Signature Value:
        8b:bf:ce:5a:2c:e2:8a:7f:2e:db:fb:d9:cc:a4:43:d0:a0:94:
        a3:71:cf:73:9d:29:4c:bd:f2:e2:3a:33:60:32:05:e9:4e:93:
        cc:b0:9a:37:e0:01:44:e4:ef:b8:f5:83:c9:3c:7d:51:4b:08:
        fa:7e:96:e5:bf:24:e0:fd:33:fa:89:ce:65:d9:80:f0:46:50:
        bc:31:cc:b9:24:b8:8d:c5:87:f4:0b:59:c0:e3:00:3b:56:46:
        13:90:cc:4a:c7:81:d6:9f:66:2f:96:c3:91:f6:4e:0b:8c:a4:
        b5:23:9d:48:24:f7:b9:af:d4:07:be:19:4d:35:18:c0:c8:92:
        ca:42:a1:0d:a4:0c:f9:aa:76:1d:9c:98:6a:0f:01:e6:e6:85:
        8d:6b:e4:45:9e:06:2f:fb:41:02:06:0a:ac:43:fa:f9:e0:80:
        5c:68:8f:aa:75:85:9b:c6:75:40:3d:ed:73:27:17:69:ab:47:
        94:07:95:aa:95:8d:70:f9:1d:39:06:c4:0d:16:24:cb:2d:e1:
        ae:cd:e4:98:30:e5:b6:52:32:90:0d:34:8b:43:f9:c0:c6:77:
        69:fd:09:ba:d0:92:fc:65:22:22:64:be:86:cb:32:8d:4d:9b:
        d2:f0:63:23:28:08:65:12:f3:43:d2:c4:f2:c7:72:cc:51:c2:
        fe:8e:f4:bd
-----BEGIN CERTIFICATE-----
MIIDkDCCAnigAwIBAgIJANjT46bL482PMA0GCSqGSIb3DQEBCwUAMEExCzAJBgNV
BAYTAkZJMRAwDgYDVQQHDAdUdXVzdWxhMQ4wDAYDVQQKDAV3MS5maTEQMA4GA1UE
AwwHUm9vdCBDQTAeFw0yNDA0MTcxODI1MzdaFw0yNTA0MTcxODI1MzdaMDExCzAJ
BgNVBAYTAkZJMQ4wDAYDVQQKDAV3MS5maTESMBAGA1UEAwwJVGVzdCBVc2VyMIIB
IjANBgkqhkiG9w0BAQEFAAOCAQ8AMIIBCgKCAQEAvCQI2QdtGQ6UXGvZioQbAyLi
GgZC0wtgjV8xBAb6okBqDCQpWM2DvzqdfzcNTSdd1VdXHPO+dT86TERvAi9biyyw
XEcpGTEI0Sj1HpxbnLfna0A1ED5/ZmcWoU5oinHMMljjCIeiKgctf3P2Q+V/9PZ0
rifo0lyum4LZpSpydoQv42KqQR7eM7dk+Hlv+gm1vLCMzTSCLcQQVYnqbDiS/mHW
ZIQE1Ao3MjeNw1XR/Ku4VQapAE8x4kLx57QunEUN3Kn5rbJ3wfCxw6JaJpC9GS9G
HaUhPfA1YpTIzzM/2KJd38xYAAiN7bEExSs/GhX2kgjU8ULNbNvy/+BuaYTYiwID
AQABo4GaMIGXMAkGA1UdEwQCMAAwHQYDVR0OBBYEFPuFAKjf1gwOp+M5Ydm+zirv
bSjYMB8GA1UdIwQYMBaAFKT9uTkbgbOq64gd1IGptRFwzKfhMDUGCCsGAQUFBwEB
BCkwJzAlBggrBgEFBQcwAYYZaHR0cDovL3NlcnZlci53MS5maTo4ODg4LzATBgNV
HSUEDDAKBggrBgEFBQcDAjANBgkqhkiG9w0BAQsFAAOCAQEAi7/OWiziin8u2/vZ
zKRD0KCUo3HPc50pTL3y4jozYDIF6U6TzLCaN+ABROTvuPWDyTx9UUsI+n6W5b8k
4P0z+onOZdmA8EZQvDHMuSS4jcWH9AtZwOMAO1ZGE5DMSseB1p9mL5bDkfZOC4yk
tSOdSCT3ua/UB74ZTTUYwMiSykKhDaQM+ap2HZyYag8B5uaFjWvkRZ4GL/tBAgYK
rEP6+eCAXGiPqnWFm8Z1QD3tcycXaatHlAeVqpWNcPkdOQbEDRYkyy3hrs3kmDDl
tlIykA00i0P5wMZ3af0JutCS/GUiImS+hssyjU2b0vBjIygIZRLzQ9LE8sdyzFHC
/o70vQ==
-----END CERTIFICATE-----
