Certificate:
    Data:
        Version: 3 (0x2)
        Serial Number: 1 (0x1)
    Signature Algorithm: sha256WithRSAEncryption
        Issuer: C=KG, ST=NA, L=BISHKEK, O=OpenVPN-TEST/emailAddress=me@myhost.mydomain
        Validity
            Not Before: Oct 28 12:54:32 2016 GMT
            Not After : Oct 26 12:54:32 2026 GMT
        Subject: C=KG, ST=NA, O=OpenVPN-TEST, CN=Test-Server/emailAddress=me@myhost.mydomain
        Subject Public Key Info:
            Public Key Algorithm: rsaEncryption
                Public-Key: (2048 bit)
                Modulus:
                    00:a6:74:d1:c9:77:5d:ff:d6:22:e3:69:38:8f:e1:
                    15:0c:e3:46:2c:19:61:31:af:ef:f9:34:5b:0c:bd:
                    20:d1:76:6a:64:62:f6:89:aa:5b:c9:42:10:44:6f:
                    07:0f:fe:62:59:96:0b:16:ec:62:3e:18:08:ad:67:
                    37:b6:53:2d:3d:d9:81:b7:6b:11:d6:fa:23:6a:23:
                    6c:3c:be:54:91:e3:04:c6:f5:8c:a6:6a:80:9f:ef:
                    e8:5b:63:1e:68:37:09:ef:4d:5c:44:82:e6:2e:0d:
                    e5:d7:94:3f:31:74:50:d1:10:5c:99:4d:b5:9f:80:
                    2b:46:25:37:8b:a2:3d:ce:02:b2:0a:21:63:82:9c:
                    a1:35:b9:3d:9e:ad:a4:19:3c:f5:b2:3a:d7:aa:d4:
                    b7:6d:c2:95:4d:94:4b:38:6f:b0:60:cf:22:d7:37:
                    66:62:1d:1a:86:c2:a8:6a:2a:56:e5:d6:c3:e2:31:
                    34:a6:42:5d:79:da:12:e0:a1:95:d1:17:07:f6:cc:
                    f8:63:fa:01:8a:26:7b:bf:b8:a4:87:8c:b5:a3:59:
                    23:60:67:07:4a:4c:c1:55:be:60:a1:56:92:6c:97:
                    53:fb:fe:eb:d3:25:fd:28:23:3e:38:4d:e9:92:90:
                    8b:a6:5e:22:2f:02:1f:69:c6:fa:88:a5:52:88:cc:
                    61:a1
                Exponent: 65537 (0x10001)
        X509v3 extensions:
            X509v3 Basic Constraints: 
                CA:FALSE
            Netscape Cert Type: 
                SSL Server
            Netscape Comment: 
                OpenSSL Generated Server Certificate
            X509v3 Subject Key Identifier: 
                7D:4C:17:FE:59:B2:58:FF:08:BC:F4:88:FC:A3:8F:9F:CA:3B:3B:5E
            X509v3 Authority Key Identifier: 
                keyid:08:C4:94:ED:23:0A:23:0D:D0:FA:D2:13:E2:3C:B6:65:E7:53:25:10
                DirName:/C=KG/ST=NA/L=BISHKEK/O=OpenVPN-TEST/emailAddress=me@myhost.mydomain
                serial:A4:CC:46:13:89:24:40:73

            X509v3 Extended Key Usage: 
                TLS Web Server Authentication
            X509v3 Key Usage: 
                Digital Signature, Key Encipherment
    Signature Algorithm: sha256WithRSAEncryption
         82:2e:11:99:f4:56:98:ad:23:97:74:5c:69:00:7b:fc:9a:93:
         15:20:93:db:d6:83:04:9a:6c:cb:55:cd:5c:07:d6:31:5a:00:
         1d:35:eb:8e:74:cd:7a:08:db:cd:1f:89:8c:04:70:f7:35:e0:
         a7:cc:cf:76:2b:8a:a5:80:7b:c1:72:4e:9a:c6:b7:a2:f5:9c:
         23:dc:d7:0d:93:a3:0f:f4:10:7d:8b:1d:85:5e:bb:2f:09:c8:
         67:41:38:12:72:14:29:f6:6d:68:b5:8a:97:1c:a1:8f:3d:74:
         14:95:c6:88:4f:4c:cd:8b:2e:db:95:b0:98:55:d7:5b:22:1f:
         f3:de:5c:b4:7b:a0:d9:f2:56:2c:ff:85:b0:16:52:63:11:2b:
         14:8e:d0:f8:03:d2:cc:89:35:c0:d5:a3:b9:ec:11:55:e0:17:
         43:95:b2:6e:f2:db:80:73:f2:b3:3f:9d:fa:4d:24:6a:60:25:
         24:1a:53:10:38:08:d4:fe:fa:06:1a:1e:d3:cc:15:64:c7:9e:
         8b:51:ee:b3:50:25:60:88:70:46:39:bd:79:f1:5a:74:67:3d:
         f0:7e:22:a9:b4:2e:f5:06:45:c3:46:fe:e6:32:40:e6:e1:00:
         dc:e8:a8:43:fe:f4:66:64:4f:41:45:d5:d2:7b:ab:a0:62:f7:
         dc:f0:28:d3:c6:9c:21:3e:bd:44:95:4c:20:b4:8f:c3:ae:ee:
         eb:d7:7a:11:88:2d:3d:18:49:5d:e6:09:b8:5f:c7:24:32:83:
         dd:5f:ae:03:02:c1:b6:51:0d:62:a2:41:f4:13:12:b2:f2:9a:
         c1:50:04:63:42:de:41:b3:b3:ab:45:57:9e:8b:01:e0:c5:70:
         d9:70:0e:ea:84:39:07:08:03:e9:99:b1:60:ce:a9:c6:ce:a4:
         61:29:36:3c:58:52:a2:c3:01:4f:4e:c1:e8:af:3b:ca:7c:34:
         9c:2a:21:c9:40:17:ce:8c:10:b2:fc:c2:39:43:55:50:19:2d:
         c9:f0:ab:48:b2:86:e6:cf:1e:13:6c:6a:ed:85:e9:f6:dd:b9:
         ba:6e:70:6a:e9:78:43:40:a3:c8:64:50:1f:5b:88:0d:88:55:
         0f:94:9c:92:44:83:79:0c:38:79:09:c4:93:6a:a8:dc:f3:8b:
         c4:af:bf:0c:20:7b:76:7b:31:52:01:70:4f:09:be:38:d0:14:
         ce:62:c6:00:35:cd:fc:eb:68:f1:45:d5:de:6a:3f:8b:3f:dc:
         1c:c9:e3:8a:7c:f1:17:53:71:f8:af:c9:43:9f:91:5a:16:0b:
         3a:c0:d7:b0:e7:74:54:12:f0:9a:71:5f:f3:dd:6b:c0:69:ec:
         9d:4d:14:61:bd:10:21:80
-----BEGIN CERTIFICATE-----
MIIFgDCCA2igAwIBAgIBATANBgkqhkiG9w0BAQsFADBmMQswCQYDVQQGEwJLRzEL
MAkGA1UECBMCTkExEDAOBgNVBAcTB0JJU0hLRUsxFTATBgNVBAoTDE9wZW5WUE4t
VEVTVDEhMB8GCSqGSIb3DQEJARYSbWVAbXlob3N0Lm15ZG9tYWluMB4XDTE2MTAy
ODEyNTQzMloXDTI2MTAyNjEyNTQzMlowajELMAkGA1UEBhMCS0cxCzAJBgNVBAgT
Ak5BMRUwEwYDVQQKEwxPcGVuVlBOLVRFU1QxFDASBgNVBAMTC1Rlc3QtU2VydmVy
MSEwHwYJKoZIhvcNAQkBFhJtZUBteWhvc3QubXlkb21haW4wggEiMA0GCSqGSIb3
DQEBAQUAA4IBDwAwggEKAoIBAQCmdNHJd13/1iLjaTiP4RUM40YsGWExr+/5NFsM
vSDRdmpkYvaJqlvJQhBEbwcP/mJZlgsW7GI+GAitZze2Uy092YG3axHW+iNqI2w8
vlSR4wTG9YymaoCf7+hbYx5oNwnvTVxEguYuDeXXlD8xdFDREFyZTbWfgCtGJTeL
oj3OArIKIWOCnKE1uT2eraQZPPWyOteq1LdtwpVNlEs4b7BgzyLXN2ZiHRqGwqhq
Klbl1sPiMTSmQl152hLgoZXRFwf2zPhj+gGKJnu/uKSHjLWjWSNgZwdKTMFVvmCh
VpJsl1P7/uvTJf0oIz44TemSkIumXiIvAh9pxvqIpVKIzGGhAgMBAAGjggEzMIIB
LzAJBgNVHRMEAjAAMBEGCWCGSAGG+EIBAQQEAwIGQDAzBglghkgBhvhCAQ0EJhYk
T3BlblNTTCBHZW5lcmF0ZWQgU2VydmVyIENlcnRpZmljYXRlMB0GA1UdDgQWBBR9
TBf+WbJY/wi89Ij8o4+fyjs7XjCBmAYDVR0jBIGQMIGNgBQIxJTtIwojDdD60hPi
PLZl51MlEKFqpGgwZjELMAkGA1UEBhMCS0cxCzAJBgNVBAgTAk5BMRAwDgYDVQQH
EwdCSVNIS0VLMRUwEwYDVQQKEwxPcGVuVlBOLVRFU1QxITAfBgkqhkiG9w0BCQEW
Em1lQG15aG9zdC5teWRvbWFpboIJAKTMRhOJJEBzMBMGA1UdJQQMMAoGCCsGAQUF
BwMBMAsGA1UdDwQEAwIFoDANBgkqhkiG9w0BAQsFAAOCAgEAgi4RmfRWmK0jl3Rc
aQB7/JqTFSCT29aDBJpsy1XNXAfWMVoAHTXrjnTNegjbzR+JjARw9zXgp8zPdiuK
pYB7wXJOmsa3ovWcI9zXDZOjD/QQfYsdhV67LwnIZ0E4EnIUKfZtaLWKlxyhjz10
FJXGiE9MzYsu25WwmFXXWyIf895ctHug2fJWLP+FsBZSYxErFI7Q+APSzIk1wNWj
uewRVeAXQ5WybvLbgHPysz+d+k0kamAlJBpTEDgI1P76Bhoe08wVZMeei1Hus1Al
YIhwRjm9efFadGc98H4iqbQu9QZFw0b+5jJA5uEA3OioQ/70ZmRPQUXV0nuroGL3
3PAo08acIT69RJVMILSPw67u69d6EYgtPRhJXeYJuF/HJDKD3V+uAwLBtlENYqJB
9BMSsvKawVAEY0LeQbOzq0VXnosB4MVw2XAO6oQ5BwgD6ZmxYM6pxs6kYSk2PFhS
osMBT07B6K87ynw0nCohyUAXzowQsvzCOUNVUBktyfCrSLKG5s8eE2xq7YXp9t25
um5waul4Q0CjyGRQH1uIDYhVD5SckkSDeQw4eQnEk2qo3POLxK+/DCB7dnsxUgFw
Twm+ONAUzmLGADXN/Oto8UXV3mo/iz/cHMnjinzxF1Nx+K/JQ5+RWhYLOsDXsOd0
VBLwmnFf891rwGnsnU0UYb0QIYA=
-----END CERTIFICATE-----
