Certificate:
    Data:
        Version: 3 (0x2)
        Serial Number:
            ad:8c:09:e8:fb:a2:88:d1
        Signature Algorithm: sha384WithRSAEncryption
        Issuer: C=FI, L=Helsinki, O=w1.fi, CN=Suite B RSA 3k Root CA
        Validity
            Not Before: Aug 22 13:56:07 2023 GMT
            Not After : Aug 21 13:56:07 2025 GMT
        Subject: C=FI, O=w1.fi, CN=rsa3072.server.w1.fi
        Subject Public Key Info:
            Public Key Algorithm: rsaEncryption
                Public-Key: (3072 bit)
                Modulus:
                    00:fe:a9:5c:59:8f:aa:80:cb:b8:4a:89:f9:3a:e8:
                    7d:24:51:b8:f2:05:c6:42:e0:68:b5:a4:f1:7e:8a:
                    31:a2:e0:0c:58:c5:80:20:cb:20:f0:0e:c1:6b:4d:
                    e1:d7:eb:cc:45:48:c9:b0:0f:8f:ef:80:db:1b:60:
                    02:af:ef:e8:0a:29:c8:04:df:70:92:e9:f1:dc:6a:
                    47:3b:5a:6f:10:e6:19:4d:93:92:d0:0a:8e:a2:4d:
                    32:9f:13:c8:34:6c:1a:4c:ec:a4:ed:89:2a:03:fb:
                    18:0d:7f:0d:de:3e:7f:d8:5d:27:a5:e1:7b:62:63:
                    71:61:45:52:f9:47:10:1d:28:c2:5d:73:fb:9d:03:
                    68:bf:6d:a4:12:12:74:c7:d0:b8:87:43:b3:67:87:
                    ce:6e:7b:58:1f:2f:32:eb:10:1f:e7:74:5c:3a:d9:
                    8c:18:c8:04:95:6b:e3:3b:25:4c:0a:db:99:f3:59:
                    b0:8e:7a:de:fa:e4:db:50:15:90:a2:30:e2:8a:c6:
                    a9:06:30:e3:d7:29:dd:26:a8:95:6e:6e:f5:c4:42:
                    d0:f7:7e:40:4d:3d:fd:ad:2f:cf:40:dd:d4:c0:6b:
                    80:a2:34:7e:05:2f:bf:32:44:0b:d4:78:6d:2a:12:
                    08:7c:84:b4:4d:51:5a:e5:84:6e:17:26:43:8c:83:
                    6b:16:f3:5f:fa:b3:9f:84:d3:2b:ab:f3:3e:2c:23:
                    65:b9:11:76:e1:85:12:ce:bb:03:38:59:82:bf:4c:
                    77:ba:3b:90:51:9c:67:76:b0:1e:74:1e:4c:c8:b1:
                    35:d6:37:29:dc:7e:c3:89:cc:86:9e:08:31:9c:70:
                    ea:5a:6c:87:92:53:eb:99:fb:33:d2:32:f1:81:31:
                    78:a0:c9:7d:6d:d9:6b:07:fa:c8:4a:67:57:2c:8c:
                    a6:ce:e5:7e:36:95:f1:09:bd:df:bf:c8:53:3d:21:
                    67:fd:93:cb:b2:7a:b5:56:61:9e:2f:ce:69:fa:fa:
                    56:0a:6b:9c:69:78:f7:4e:54:73
                Exponent: 65537 (0x10001)
        X509v3 extensions:
            X509v3 Basic Constraints: critical
                CA:FALSE
            X509v3 Subject Key Identifier: 
                82:D7:75:95:94:9E:35:F7:1F:91:6D:37:9F:26:4F:3D:9D:C1:6E:96
            X509v3 Authority Key Identifier: 
                21:F7:EF:DA:C3:34:3A:ED:CD:D5:50:C0:B3:BA:09:EE:3F:80:D7:70
            X509v3 Subject Alternative Name: critical
                DNS:rsa3072.server.w1.fi
            X509v3 Extended Key Usage: critical
                TLS Web Server Authentication
            X509v3 Key Usage: 
                Digital Signature, Key Encipherment
    Signature Algorithm: sha384WithRSAEncryption
    Signature Value:
        d3:1d:ad:cf:43:a2:84:d2:cf:f7:d9:89:75:8e:0b:a0:dd:da:
        d9:9c:9b:88:7f:e7:6e:c3:53:4c:9b:dd:1e:09:58:d0:2c:ae:
        c6:e2:7c:4d:2f:71:f1:58:72:d3:1c:42:f6:ed:a6:ce:a9:3f:
        db:d7:ba:26:db:b5:2c:bd:63:3a:39:18:5d:07:a7:b4:15:2a:
        c9:41:37:1f:c4:cd:8c:1b:5b:53:00:ba:c9:8a:21:70:d7:94:
        41:97:1e:d1:47:a4:3c:52:2f:91:fe:80:f1:83:20:37:32:d6:
        b5:48:1d:91:f8:f7:0c:29:bb:3b:26:89:f2:79:22:50:a7:b2:
        23:33:ee:db:31:4d:70:c8:6d:5b:14:d7:a6:31:b0:da:5e:a8:
        2a:a3:71:6f:fd:05:40:0f:fc:f1:2f:02:76:c3:92:f1:f6:9d:
        a4:45:e2:26:e0:d2:bc:ec:fa:1c:c6:76:6d:f3:3b:6a:05:62:
        8d:a4:32:50:6d:69:34:94:fe:bb:44:27:e2:73:a7:36:4a:29:
        6f:fc:8b:fe:60:50:cd:33:21:a8:98:15:9c:f1:1b:db:9e:c6:
        4c:a8:1b:f2:11:58:4f:49:71:4e:3d:8e:20:f0:99:4e:ed:98:
        7a:e0:1a:f3:75:af:3c:ec:37:f7:76:0d:1e:c0:1a:02:6d:d3:
        ca:10:bb:41:93:2c:9b:4c:93:8c:77:cb:82:62:84:1f:d7:52:
        a0:ca:bd:d9:4a:cd:e2:42:71:a5:76:ca:d0:e1:8f:2d:33:46:
        08:f1:59:aa:7f:89:45:56:a8:6f:45:0e:c8:9a:b0:70:57:16:
        dd:4f:34:45:e6:32:30:bb:e5:3c:4e:8e:3e:c6:52:3a:ce:6c:
        99:da:56:d1:64:30:64:85:4f:67:aa:6a:c0:a9:6d:e0:de:bf:
        8c:fe:05:52:6c:ad:9d:5c:6f:94:82:88:03:87:25:c4:8c:dd:
        4e:b7:c2:35:dd:b5:e5:77:a5:d8:4d:f4:d0:15:bc:0c:44:a4:
        22:5b:38:e0:21:84
-----BEGIN CERTIFICATE-----
MIIEqzCCAxOgAwIBAgIJAK2MCej7oojRMA0GCSqGSIb3DQEBDAUAMFExCzAJBgNV
BAYTAkZJMREwDwYDVQQHDAhIZWxzaW5raTEOMAwGA1UECgwFdzEuZmkxHzAdBgNV
BAMMFlN1aXRlIEIgUlNBIDNrIFJvb3QgQ0EwHhcNMjMwODIyMTM1NjA3WhcNMjUw
ODIxMTM1NjA3WjA8MQswCQYDVQQGEwJGSTEOMAwGA1UECgwFdzEuZmkxHTAbBgNV
BAMMFHJzYTMwNzIuc2VydmVyLncxLmZpMIIBojANBgkqhkiG9w0BAQEFAAOCAY8A
MIIBigKCAYEA/qlcWY+qgMu4Son5Ouh9JFG48gXGQuBotaTxfooxouAMWMWAIMsg
8A7Ba03h1+vMRUjJsA+P74DbG2ACr+/oCinIBN9wkunx3GpHO1pvEOYZTZOS0AqO
ok0ynxPINGwaTOyk7YkqA/sYDX8N3j5/2F0npeF7YmNxYUVS+UcQHSjCXXP7nQNo
v22kEhJ0x9C4h0OzZ4fObntYHy8y6xAf53RcOtmMGMgElWvjOyVMCtuZ81mwjnre
+uTbUBWQojDiisapBjDj1yndJqiVbm71xELQ935ATT39rS/PQN3UwGuAojR+BS+/
MkQL1HhtKhIIfIS0TVFa5YRuFyZDjINrFvNf+rOfhNMrq/M+LCNluRF24YUSzrsD
OFmCv0x3ujuQUZxndrAedB5MyLE11jcp3H7DicyGnggxnHDqWmyHklPrmfsz0jLx
gTF4oMl9bdlrB/rISmdXLIymzuV+NpXxCb3fv8hTPSFn/ZPLsnq1VmGeL85p+vpW
CmucaXj3TlRzAgMBAAGjgZowgZcwDAYDVR0TAQH/BAIwADAdBgNVHQ4EFgQUgtd1
lZSeNfcfkW03nyZPPZ3BbpYwHwYDVR0jBBgwFoAUIffv2sM0Ou3N1VDAs7oJ7j+A
13AwIgYDVR0RAQH/BBgwFoIUcnNhMzA3Mi5zZXJ2ZXIudzEuZmkwFgYDVR0lAQH/
BAwwCgYIKwYBBQUHAwEwCwYDVR0PBAQDAgWgMA0GCSqGSIb3DQEBDAUAA4IBgQDT
Ha3PQ6KE0s/32Yl1jgug3drZnJuIf+duw1NMm90eCVjQLK7G4nxNL3HxWHLTHEL2
7abOqT/b17om27UsvWM6ORhdB6e0FSrJQTcfxM2MG1tTALrJiiFw15RBlx7RR6Q8
Ui+R/oDxgyA3Mta1SB2R+PcMKbs7JonyeSJQp7IjM+7bMU1wyG1bFNemMbDaXqgq
o3Fv/QVAD/zxLwJ2w5Lx9p2kReIm4NK87PocxnZt8ztqBWKNpDJQbWk0lP67RCfi
c6c2Silv/Iv+YFDNMyGomBWc8RvbnsZMqBvyEVhPSXFOPY4g8JlO7Zh64Brzda88
7Df3dg0ewBoCbdPKELtBkyybTJOMd8uCYoQf11Kgyr3ZSs3iQnGldsrQ4Y8tM0YI
8Vmqf4lFVqhvRQ7ImrBwVxbdTzRF5jIwu+U8To4+xlI6zmyZ2lbRZDBkhU9nqmrA
qW3g3r+M/gVSbK2dXG+UgogDhyXEjN1Ot8I13bXld6XYTfTQFbwMRKQiWzjgIYQ=
-----END CERTIFICATE-----
