Certificate:
    Data:
        Version: 3 (0x2)
        Serial Number:
            d8:d3:e3:a6:cb:e3:cd:7e
        Signature Algorithm: sha256WithRSAEncryption
        Issuer: C=FI, L=Tuusula, O=w1.fi, CN=Root CA
        Validity
            Not Before: Apr 18 08:02:42 2023 GMT
            Not After : Apr 17 08:02:42 2024 GMT
        Subject: C=FI, O=w1.fi, CN=server3.w1.fi
        Subject Public Key Info:
            Public Key Algorithm: rsaEncryption
                Public-Key: (2048 bit)
                Modulus:
                    00:c2:eb:ad:04:6f:4c:eb:23:b8:92:4e:75:dc:00:
                    d0:0d:d9:ad:09:21:f8:12:4a:2d:cd:db:7d:63:a1:
                    32:12:8e:b8:e3:bd:df:95:39:3a:17:65:54:f8:20:
                    d6:71:37:7d:b7:b4:72:31:7a:7a:3d:ba:74:72:f3:
                    ac:9d:16:38:35:1b:7d:50:3b:ad:96:5d:a7:c0:76:
                    0b:bb:4c:06:a8:d0:f7:2d:3d:94:a5:14:26:1a:11:
                    d8:42:1b:2d:4e:6e:60:9d:6a:cf:22:db:36:65:e2:
                    17:35:bc:69:2e:ab:30:e5:cd:fc:9a:e4:4f:0f:d1:
                    01:c3:e6:33:71:31:cd:6f:da:8c:21:9d:f7:1b:d1:
                    ed:7e:39:7a:fd:69:a3:88:1c:e6:f6:d3:3b:1a:1e:
                    d3:70:c3:ad:35:2a:22:a4:de:60:90:37:5d:e7:e0:
                    ce:9b:7d:4c:b5:cb:41:1b:9c:96:51:df:58:4d:b7:
                    67:da:95:25:60:8a:ff:6c:62:84:da:d6:24:b9:65:
                    d9:7a:59:f8:c8:bd:03:be:f6:17:d8:0e:86:ae:9a:
                    4c:7d:53:f6:b1:0e:82:cd:06:61:77:dd:46:5c:fd:
                    45:6a:f2:e8:22:ca:63:8b:d3:1c:f6:4f:10:ec:ea:
                    1a:08:1e:38:3d:80:6c:a3:48:47:f2:16:2a:07:5b:
                    f7:89
                Exponent: 65537 (0x10001)
        X509v3 extensions:
            X509v3 Basic Constraints: 
                CA:FALSE
            X509v3 Subject Key Identifier: 
                5E:84:D6:31:98:17:71:F8:63:5C:32:5B:7D:33:C0:D4:FA:36:A7:6A
            X509v3 Authority Key Identifier: 
                A4:FD:B9:39:1B:81:B3:AA:EB:88:1D:D4:81:A9:B5:11:70:CC:A7:E1
            Authority Information Access: 
                OCSP - URI:http://server.w1.fi:8888/
            X509v3 Extended Key Usage: 
                TLS Web Server Authentication
    Signature Algorithm: sha256WithRSAEncryption
    Signature Value:
        76:b4:10:91:bf:f2:00:22:ed:ef:94:50:85:1c:60:3d:da:b9:
        89:57:f8:6c:5d:cd:c2:2d:81:ff:2d:83:3c:4d:42:4b:b3:04:
        dd:da:3d:7b:de:ef:72:0f:8e:f2:ae:2d:b5:9b:c9:45:58:86:
        42:36:58:cf:0e:03:2c:08:77:60:3d:86:28:7f:62:18:b5:a8:
        6a:0c:c0:cb:11:5d:6b:75:32:a2:f3:ed:7d:d4:d3:91:4c:2b:
        bc:2e:7a:46:0d:f4:83:87:d3:e7:25:60:5d:fe:ab:2b:ad:16:
        f8:72:3f:bc:12:17:6b:91:c5:e9:25:f9:08:b8:82:31:a7:17:
        7c:8f:d5:68:0e:58:03:78:50:cc:4a:2d:99:40:bc:da:6f:0a:
        7a:e5:71:71:ef:e4:e8:b1:22:12:76:14:1c:f8:13:a1:3c:b8:
        46:ba:e6:31:d4:44:f6:ed:eb:d1:1c:02:15:2f:fc:c0:52:0b:
        b9:4a:78:33:42:9d:20:3a:ac:5b:40:a1:41:4b:02:d9:7c:b8:
        80:33:6e:88:b2:6c:49:f6:55:61:da:62:34:58:ab:3c:5c:53:
        a0:8e:f2:23:ac:52:40:e5:00:a4:84:79:18:af:c1:7e:e5:c0:
        75:29:f8:79:b2:6b:dc:58:04:12:f8:9e:3d:24:1d:f2:21:f9:
        83:0e:85:42
-----BEGIN CERTIFICATE-----
MIIDlDCCAnygAwIBAgIJANjT46bL481+MA0GCSqGSIb3DQEBCwUAMEExCzAJBgNV
BAYTAkZJMRAwDgYDVQQHDAdUdXVzdWxhMQ4wDAYDVQQKDAV3MS5maTEQMA4GA1UE
AwwHUm9vdCBDQTAeFw0yMzA0MTgwODAyNDJaFw0yNDA0MTcwODAyNDJaMDUxCzAJ
BgNVBAYTAkZJMQ4wDAYDVQQKDAV3MS5maTEWMBQGA1UEAwwNc2VydmVyMy53MS5m
aTCCASIwDQYJKoZIhvcNAQEBBQADggEPADCCAQoCggEBAMLrrQRvTOsjuJJOddwA
0A3ZrQkh+BJKLc3bfWOhMhKOuOO935U5OhdlVPgg1nE3fbe0cjF6ej26dHLzrJ0W
ODUbfVA7rZZdp8B2C7tMBqjQ9y09lKUUJhoR2EIbLU5uYJ1qzyLbNmXiFzW8aS6r
MOXN/JrkTw/RAcPmM3ExzW/ajCGd9xvR7X45ev1po4gc5vbTOxoe03DDrTUqIqTe
YJA3Xefgzpt9TLXLQRucllHfWE23Z9qVJWCK/2xihNrWJLll2XpZ+Mi9A772F9gO
hq6aTH1T9rEOgs0GYXfdRlz9RWry6CLKY4vTHPZPEOzqGggeOD2AbKNIR/IWKgdb
94kCAwEAAaOBmjCBlzAJBgNVHRMEAjAAMB0GA1UdDgQWBBRehNYxmBdx+GNcMlt9
M8DU+janajAfBgNVHSMEGDAWgBSk/bk5G4GzquuIHdSBqbURcMyn4TA1BggrBgEF
BQcBAQQpMCcwJQYIKwYBBQUHMAGGGWh0dHA6Ly9zZXJ2ZXIudzEuZmk6ODg4OC8w
EwYDVR0lBAwwCgYIKwYBBQUHAwEwDQYJKoZIhvcNAQELBQADggEBAHa0EJG/8gAi
7e+UUIUcYD3auYlX+GxdzcItgf8tgzxNQkuzBN3aPXve73IPjvKuLbWbyUVYhkI2
WM8OAywId2A9hih/Yhi1qGoMwMsRXWt1MqLz7X3U05FMK7wuekYN9IOH0+clYF3+
qyutFvhyP7wSF2uRxekl+Qi4gjGnF3yP1WgOWAN4UMxKLZlAvNpvCnrlcXHv5Oix
IhJ2FBz4E6E8uEa65jHURPbt69EcAhUv/MBSC7lKeDNCnSA6rFtAoUFLAtl8uIAz
boiybEn2VWHaYjRYqzxcU6CO8iOsUkDlAKSEeRivwX7lwHUp+Hmya9xYBBL4nj0k
HfIh+YMOhUI=
-----END CERTIFICATE-----
