Certificate:
    Data:
        Version: 3 (0x2)
        Serial Number:
            d8:d3:e3:a6:cb:e3:cd:80
        Signature Algorithm: sha256WithRSAEncryption
        Issuer: C=FI, L=Tuusula, O=w1.fi, CN=Root CA
        Validity
            Not Before: Apr 18 08:02:42 2023 GMT
            Not After : Apr 17 08:02:42 2024 GMT
        Subject: C=FI, O=w1.fi, CN=server5.w1.fi
        Subject Public Key Info:
            Public Key Algorithm: rsaEncryption
                Public-Key: (2048 bit)
                Modulus:
                    00:a5:94:60:80:b8:c8:61:18:8c:02:9d:dc:cc:c4:
                    74:d1:17:b5:3b:47:9c:38:0f:3b:92:74:fb:ea:27:
                    45:44:8a:9a:2a:4d:10:25:8e:77:ce:1a:09:c9:73:
                    19:fe:dc:70:36:5e:8c:fa:8f:4c:84:bb:f7:72:e4:
                    94:4f:fc:47:2a:7d:89:92:a3:2b:5a:69:9c:c8:5a:
                    10:39:32:61:7d:0a:78:19:b4:36:eb:ac:4c:d6:af:
                    75:00:14:4e:15:2f:5f:83:ee:62:f5:ac:7b:0c:81:
                    ba:a2:08:36:7b:f0:ef:63:31:62:fb:86:a6:cf:da:
                    36:83:44:8d:75:28:b6:e4:10:f3:32:dd:8a:6c:5b:
                    ee:4f:f1:1e:53:0b:13:7c:c7:bc:f7:9e:32:80:1e:
                    63:3e:92:75:2f:c5:21:5e:f0:2a:ac:e2:34:e4:17:
                    b2:34:f7:e8:2a:12:8a:21:b8:03:e7:b6:d8:f8:32:
                    b5:fe:71:45:52:98:de:b9:3d:41:f5:90:a5:76:83:
                    c1:18:ca:50:5d:2c:52:8b:6e:4f:a7:5b:bb:d8:e3:
                    14:25:70:de:d1:c7:9d:59:cf:24:46:c7:f5:6e:6f:
                    83:66:ed:1b:1d:3e:51:04:94:67:64:df:51:22:3c:
                    c0:e1:24:0a:37:6a:dc:6a:8b:fd:45:5b:96:2d:03:
                    ac:63
                Exponent: 65537 (0x10001)
        X509v3 extensions:
            X509v3 Basic Constraints: 
                CA:FALSE
            X509v3 Subject Key Identifier: 
                32:9F:9F:30:24:73:73:CB:8D:53:3A:80:23:EB:5B:5D:4C:DD:06:01
            X509v3 Authority Key Identifier: 
                A4:FD:B9:39:1B:81:B3:AA:EB:88:1D:D4:81:A9:B5:11:70:CC:A7:E1
            Authority Information Access: 
                OCSP - URI:http://server.w1.fi:8888/
            X509v3 Extended Key Usage: 
                TLS Web Client Authentication
    Signature Algorithm: sha256WithRSAEncryption
    Signature Value:
        ba:e6:af:f3:c2:8d:42:2c:3e:80:3d:98:b1:d8:c0:4d:c1:18:
        ca:d7:74:25:42:dd:9a:13:9c:74:e0:7a:a0:d7:b1:0c:a3:5c:
        2d:db:a7:43:dd:bd:ce:f1:ed:e8:80:5a:38:11:61:23:2f:aa:
        a3:47:46:66:59:cd:d3:aa:1e:60:5f:59:a0:de:a9:27:c8:11:
        0c:56:80:d6:c4:df:b7:d8:9c:f6:bb:14:08:8d:47:42:91:9c:
        d2:40:62:42:5f:06:3a:94:d4:13:af:88:9b:0c:53:69:bc:45:
        4a:32:bb:54:53:6b:95:88:8f:2d:f5:92:f2:8f:03:f8:32:b2:
        6c:94:32:7b:fa:5e:46:d8:f5:39:65:ff:cd:dc:2d:0e:d8:78:
        ef:96:13:9c:d1:6e:57:c9:27:64:ed:16:d7:1e:7b:fd:47:19:
        73:0e:f0:d0:27:5b:4b:82:4a:2c:ae:f5:1a:c4:15:b5:84:a9:
        66:4e:63:13:d9:0a:d4:88:28:ec:95:2a:7f:0f:a4:c5:3e:84:
        b4:98:16:21:a2:1a:71:a1:af:4b:8b:be:d0:6c:99:3e:61:94:
        19:7a:fc:2a:2c:7e:3d:df:be:b8:fb:52:0c:d9:fa:94:8a:18:
        88:a9:b1:73:33:2d:e5:78:53:75:88:99:1b:fc:ae:b9:25:59:
        cd:e1:03:77
-----BEGIN CERTIFICATE-----
MIIDlDCCAnygAwIBAgIJANjT46bL482AMA0GCSqGSIb3DQEBCwUAMEExCzAJBgNV
BAYTAkZJMRAwDgYDVQQHDAdUdXVzdWxhMQ4wDAYDVQQKDAV3MS5maTEQMA4GA1UE
AwwHUm9vdCBDQTAeFw0yMzA0MTgwODAyNDJaFw0yNDA0MTcwODAyNDJaMDUxCzAJ
BgNVBAYTAkZJMQ4wDAYDVQQKDAV3MS5maTEWMBQGA1UEAwwNc2VydmVyNS53MS5m
aTCCASIwDQYJKoZIhvcNAQEBBQADggEPADCCAQoCggEBAKWUYIC4yGEYjAKd3MzE
dNEXtTtHnDgPO5J0++onRUSKmipNECWOd84aCclzGf7ccDZejPqPTIS793LklE/8
Ryp9iZKjK1ppnMhaEDkyYX0KeBm0NuusTNavdQAUThUvX4PuYvWsewyBuqIINnvw
72MxYvuGps/aNoNEjXUotuQQ8zLdimxb7k/xHlMLE3zHvPeeMoAeYz6SdS/FIV7w
KqziNOQXsjT36CoSiiG4A+e22Pgytf5xRVKY3rk9QfWQpXaDwRjKUF0sUotuT6db
u9jjFCVw3tHHnVnPJEbH9W5vg2btGx0+UQSUZ2TfUSI8wOEkCjdq3GqL/UVbli0D
rGMCAwEAAaOBmjCBlzAJBgNVHRMEAjAAMB0GA1UdDgQWBBQyn58wJHNzy41TOoAj
61tdTN0GATAfBgNVHSMEGDAWgBSk/bk5G4GzquuIHdSBqbURcMyn4TA1BggrBgEF
BQcBAQQpMCcwJQYIKwYBBQUHMAGGGWh0dHA6Ly9zZXJ2ZXIudzEuZmk6ODg4OC8w
EwYDVR0lBAwwCgYIKwYBBQUHAwIwDQYJKoZIhvcNAQELBQADggEBALrmr/PCjUIs
PoA9mLHYwE3BGMrXdCVC3ZoTnHTgeqDXsQyjXC3bp0Pdvc7x7eiAWjgRYSMvqqNH
RmZZzdOqHmBfWaDeqSfIEQxWgNbE37fYnPa7FAiNR0KRnNJAYkJfBjqU1BOviJsM
U2m8RUoyu1RTa5WIjy31kvKPA/gysmyUMnv6XkbY9Tll/83cLQ7YeO+WE5zRblfJ
J2TtFtcee/1HGXMO8NAnW0uCSiyu9RrEFbWEqWZOYxPZCtSIKOyVKn8PpMU+hLSY
FiGiGnGhr0uLvtBsmT5hlBl6/Cosfj3fvrj7UgzZ+pSKGIipsXMzLeV4U3WImRv8
rrklWc3hA3c=
-----END CERTIFICATE-----
