Certificate:
    Data:
        Version: 3 (0x2)
        Serial Number:
            d8:d3:e3:a6:cb:e3:cd:81
        Signature Algorithm: sha256WithRSAEncryption
        Issuer: C=FI, L=Tuusula, O=w1.fi, CN=Root CA
        Validity
            Not Before: Apr 18 08:02:42 2023 GMT
            Not After : Apr 17 08:02:42 2024 GMT
        Subject: C=FI, O=w1.fi, CN=server6.w1.fi
        Subject Public Key Info:
            Public Key Algorithm: rsaEncryption
                Public-Key: (2048 bit)
                Modulus:
                    00:d0:23:f4:80:12:be:4a:64:4d:af:99:af:52:ef:
                    8d:f5:73:9a:1a:28:2b:92:e8:d4:90:25:3e:85:47:
                    9f:c9:c4:b9:7a:35:24:84:2f:1e:51:16:66:d3:ac:
                    31:ea:f1:63:a4:4c:ea:26:f0:fa:61:c7:9f:f2:74:
                    69:6a:78:09:c5:c9:89:74:db:6d:ba:c7:b6:b1:f0:
                    61:1f:ef:3a:1c:d5:c6:fc:95:5d:9b:37:d6:5b:cb:
                    37:93:59:ed:50:f2:6a:a2:01:5c:9e:22:af:3a:31:
                    d9:ee:eb:33:49:93:4e:46:ee:9d:7b:86:86:da:2b:
                    1d:f9:f3:a2:01:7d:0d:55:1c:3b:67:e9:c9:fb:bc:
                    a9:52:4c:4a:21:85:68:50:2f:e4:05:c1:3f:e0:b3:
                    a3:25:d4:6c:2e:61:7c:9d:d5:da:93:bb:19:fe:ea:
                    bf:f2:c8:f9:dc:de:48:54:e1:fe:d4:b5:94:5a:3f:
                    2c:2b:8c:b1:6c:ef:3a:b0:d2:0c:2c:13:75:61:db:
                    97:6b:fa:6b:f9:9d:f7:14:aa:35:72:d8:4c:0b:a1:
                    5c:08:c5:87:d4:e4:87:1d:6b:0a:50:1f:b5:0e:3f:
                    bb:36:8b:c6:e0:bd:1e:1a:e1:1c:f3:37:a4:91:65:
                    4c:43:b4:9e:cc:1b:61:68:09:bd:1e:ab:61:bd:c1:
                    91:71
                Exponent: 65537 (0x10001)
        X509v3 extensions:
            X509v3 Basic Constraints: 
                CA:FALSE
            X509v3 Subject Key Identifier: 
                AB:D2:88:CA:9C:44:26:89:2E:C0:B9:8D:46:DD:5C:69:02:9E:01:CB
            X509v3 Authority Key Identifier: 
                A4:FD:B9:39:1B:81:B3:AA:EB:88:1D:D4:81:A9:B5:11:70:CC:A7:E1
            Authority Information Access: 
                OCSP - URI:http://server.w1.fi:8888/
            X509v3 Extended Key Usage: 
                TLS Web Client Authentication, TLS Web Server Authentication
    Signature Algorithm: sha256WithRSAEncryption
    Signature Value:
        9b:0c:21:e8:56:b8:41:d4:f7:9b:a4:54:16:2f:f1:86:2a:e1:
        65:a1:e2:2f:f7:10:1e:c7:ee:b8:3b:c3:28:4b:6d:f9:2e:77:
        6b:eb:4b:ea:1c:8b:e3:be:92:b0:67:75:d6:15:62:a1:ec:63:
        55:2d:12:32:a5:4c:e7:bb:27:41:de:9c:20:b6:a0:4d:7a:ea:
        63:6b:49:0a:fe:d7:4d:af:40:ff:35:61:88:00:c0:2b:fa:7b:
        88:b7:c0:fd:40:db:90:ba:de:23:04:82:76:f5:2a:a9:b6:56:
        6e:3e:e4:c7:af:27:6c:59:c5:8d:d8:37:9a:3d:73:80:e7:33:
        4d:72:00:cb:7a:70:55:0d:0b:9a:e1:26:b1:ba:a9:07:a2:ea:
        14:e8:e8:98:23:a9:20:71:dd:08:b6:41:ab:f9:84:dd:2d:51:
        58:d2:15:c2:95:9f:dc:da:ec:f7:79:2b:a2:5b:a1:77:c8:b4:
        d2:5d:39:7e:22:3c:34:50:86:d3:dd:0d:2d:a7:d4:b4:be:fb:
        8d:9c:e7:07:52:4b:8a:13:02:0f:5c:43:cd:a0:e6:2a:f1:74:
        6e:a8:cd:3c:10:aa:e6:41:d3:4b:eb:e3:5c:a7:e0:ef:4c:3f:
        fc:ee:6a:74:8c:c3:99:bf:3a:94:6f:b9:36:ee:9b:40:6a:e9:
        c3:5e:6d:a2
-----BEGIN CERTIFICATE-----
MIIDnjCCAoagAwIBAgIJANjT46bL482BMA0GCSqGSIb3DQEBCwUAMEExCzAJBgNV
BAYTAkZJMRAwDgYDVQQHDAdUdXVzdWxhMQ4wDAYDVQQKDAV3MS5maTEQMA4GA1UE
AwwHUm9vdCBDQTAeFw0yMzA0MTgwODAyNDJaFw0yNDA0MTcwODAyNDJaMDUxCzAJ
BgNVBAYTAkZJMQ4wDAYDVQQKDAV3MS5maTEWMBQGA1UEAwwNc2VydmVyNi53MS5m
aTCCASIwDQYJKoZIhvcNAQEBBQADggEPADCCAQoCggEBANAj9IASvkpkTa+Zr1Lv
jfVzmhooK5Lo1JAlPoVHn8nEuXo1JIQvHlEWZtOsMerxY6RM6ibw+mHHn/J0aWp4
CcXJiXTbbbrHtrHwYR/vOhzVxvyVXZs31lvLN5NZ7VDyaqIBXJ4irzox2e7rM0mT
TkbunXuGhtorHfnzogF9DVUcO2fpyfu8qVJMSiGFaFAv5AXBP+CzoyXUbC5hfJ3V
2pO7Gf7qv/LI+dzeSFTh/tS1lFo/LCuMsWzvOrDSDCwTdWHbl2v6a/md9xSqNXLY
TAuhXAjFh9Tkhx1rClAftQ4/uzaLxuC9HhrhHPM3pJFlTEO0nswbYWgJvR6rYb3B
kXECAwEAAaOBpDCBoTAJBgNVHRMEAjAAMB0GA1UdDgQWBBSr0ojKnEQmiS7AuY1G
3VxpAp4ByzAfBgNVHSMEGDAWgBSk/bk5G4GzquuIHdSBqbURcMyn4TA1BggrBgEF
BQcBAQQpMCcwJQYIKwYBBQUHMAGGGWh0dHA6Ly9zZXJ2ZXIudzEuZmk6ODg4OC8w
HQYDVR0lBBYwFAYIKwYBBQUHAwIGCCsGAQUFBwMBMA0GCSqGSIb3DQEBCwUAA4IB
AQCbDCHoVrhB1PebpFQWL/GGKuFloeIv9xAex+64O8MoS235Lndr60vqHIvjvpKw
Z3XWFWKh7GNVLRIypUznuydB3pwgtqBNeupja0kK/tdNr0D/NWGIAMAr+nuIt8D9
QNuQut4jBIJ29SqptlZuPuTHrydsWcWN2DeaPXOA5zNNcgDLenBVDQua4SaxuqkH
ouoU6OiYI6kgcd0ItkGr+YTdLVFY0hXClZ/c2uz3eSuiW6F3yLTSXTl+Ijw0UIbT
3Q0tp9S0vvuNnOcHUkuKEwIPXEPNoOYq8XRuqM08EKrmQdNL6+Ncp+DvTD/87mp0
jMOZvzqUb7k27ptAaunDXm2i
-----END CERTIFICATE-----
