Certificate:
    Data:
        Version: 3 (0x2)
        Serial Number:
            d8:d3:e3:a6:cb:e3:cd:84
        Signature Algorithm: sha256WithRSAEncryption
        Issuer: C=FI, L=Tuusula, O=w1.fi, CN=Root CA
        Validity
            Not Before: Apr 18 08:02:42 2023 GMT
            Not After : Apr 17 08:02:42 2024 GMT
        Subject: C=FI, O=w1.fi, CN=server-policies2.w1.fi
        Subject Public Key Info:
            Public Key Algorithm: rsaEncryption
                Public-Key: (3072 bit)
                Modulus:
                    00:e6:50:d1:28:05:27:6c:d4:42:d3:42:c7:cc:53:
                    a9:6b:c2:a3:ab:20:6f:17:34:9d:e4:1d:31:d0:c4:
                    68:65:42:d5:e8:bd:aa:b8:e4:e9:f6:ee:2e:75:cd:
                    6a:8c:f6:8e:aa:af:6c:7c:eb:35:50:55:b1:c2:b3:
                    f8:a7:d0:1e:a3:33:26:68:40:20:13:74:08:87:ef:
                    b6:3a:f1:7f:3e:f5:7f:93:44:74:37:8b:c3:89:a7:
                    ba:5f:42:39:4a:22:20:40:66:c6:6f:77:cf:54:3f:
                    05:61:de:ab:71:fa:9f:78:6d:97:4a:e8:60:a0:11:
                    aa:6c:ba:9d:44:65:18:e8:e0:8f:d1:df:da:95:ab:
                    41:2c:63:65:f6:42:42:e6:1f:42:a4:1c:74:20:49:
                    f4:d4:92:0e:e3:be:3b:55:fd:38:68:74:3a:e4:df:
                    9a:2b:95:bf:e9:d1:38:8b:16:24:20:35:db:b8:d0:
                    15:30:2e:2f:6a:24:b9:e1:e9:e7:b6:b5:bd:e6:0f:
                    59:dd:df:95:9c:ab:03:b4:c5:42:81:48:61:cc:3c:
                    06:17:85:63:6e:28:cb:d7:88:d1:ce:40:c7:ff:61:
                    51:ac:bb:ba:23:c9:42:a7:7d:27:0d:1e:53:90:cf:
                    22:3f:57:f5:ff:1a:05:0c:9c:7a:1b:fb:e2:47:5f:
                    45:cb:ee:88:a5:a0:54:71:83:f7:d3:d3:c5:bc:b2:
                    7e:85:a7:b1:1a:cf:91:cb:8b:39:ba:7c:2c:9d:b2:
                    c5:79:c3:e0:80:73:06:30:4f:5d:81:52:e2:bf:43:
                    55:85:5d:64:c4:97:ac:e9:2d:7e:30:b5:e1:52:50:
                    53:0c:ac:24:8e:7b:a2:57:8d:ff:b1:05:ba:23:33:
                    a6:08:a3:b4:38:42:f6:5c:d9:bc:5d:75:95:82:ff:
                    4d:9a:db:56:2f:1b:38:d2:51:05:2c:90:62:f1:8e:
                    4c:ee:ea:1b:ae:aa:53:74:85:ba:c6:c3:c2:4b:30:
                    bd:e0:2e:c8:ac:7e:25:cc:32:5f
                Exponent: 65537 (0x10001)
        X509v3 extensions:
            X509v3 Basic Constraints: 
                CA:FALSE
            X509v3 Subject Key Identifier: 
                4E:01:8B:7E:C2:77:94:E1:68:B3:C4:29:35:24:05:0B:DE:84:4A:89
            X509v3 Authority Key Identifier: 
                A4:FD:B9:39:1B:81:B3:AA:EB:88:1D:D4:81:A9:B5:11:70:CC:A7:E1
            Authority Information Access: 
                OCSP - URI:http://server.w1.fi:8888/
            X509v3 Subject Alternative Name: 
                DNS:server-policies2.w1.fi
            X509v3 Certificate Policies: 
                Policy: 1.3.6.1.4.1.40808.1.3.2
            X509v3 Extended Key Usage: 
                TLS Web Server Authentication
    Signature Algorithm: sha256WithRSAEncryption
    Signature Value:
        88:57:78:20:07:d5:4b:ba:97:28:33:8e:cc:fb:98:62:99:46:
        24:f7:c1:4b:d4:51:2c:5a:90:ce:e8:a7:81:0c:3e:d5:e8:19:
        a7:2a:d4:0c:64:4a:99:00:0a:3a:1b:09:4c:13:03:76:b5:f3:
        db:66:09:56:79:0f:61:5c:ea:1b:f4:52:3d:52:53:ef:dd:cd:
        da:58:20:db:3a:cd:6b:6c:f6:bf:3f:16:1a:12:0d:2e:ad:37:
        80:41:2d:7c:6c:21:38:b1:a1:f8:20:60:03:b1:ee:75:0b:bf:
        c9:02:f8:46:9a:66:19:3b:8b:5d:3a:3b:a7:39:d0:fd:88:77:
        b0:39:cf:75:0b:fb:f0:67:56:41:1e:63:26:5c:fe:5a:cb:6e:
        be:aa:36:e0:04:a4:5c:ae:2e:b2:7f:9f:55:d4:81:d8:cd:a9:
        4e:e7:b6:a8:bb:19:70:6b:63:ac:51:1b:3f:b1:16:c2:5c:b3:
        80:4a:2d:da:d9:18:1d:08:58:0a:99:b8:1e:6d:4f:87:f2:6b:
        bb:76:92:d4:8a:f1:13:66:bf:39:ab:22:9a:17:84:ee:c1:f9:
        14:88:02:3c:03:11:6b:9e:e0:d5:fc:4f:ec:11:38:3d:7a:7c:
        e7:00:d9:ac:f3:fd:bc:30:e5:0c:e5:dc:27:b2:61:3f:20:04:
        47:72:4c:42
-----BEGIN CERTIFICATE-----
MIIEWjCCA0KgAwIBAgIJANjT46bL482EMA0GCSqGSIb3DQEBCwUAMEExCzAJBgNV
BAYTAkZJMRAwDgYDVQQHDAdUdXVzdWxhMQ4wDAYDVQQKDAV3MS5maTEQMA4GA1UE
AwwHUm9vdCBDQTAeFw0yMzA0MTgwODAyNDJaFw0yNDA0MTcwODAyNDJaMD4xCzAJ
BgNVBAYTAkZJMQ4wDAYDVQQKDAV3MS5maTEfMB0GA1UEAwwWc2VydmVyLXBvbGlj
aWVzMi53MS5maTCCAaIwDQYJKoZIhvcNAQEBBQADggGPADCCAYoCggGBAOZQ0SgF
J2zUQtNCx8xTqWvCo6sgbxc0neQdMdDEaGVC1ei9qrjk6fbuLnXNaoz2jqqvbHzr
NVBVscKz+KfQHqMzJmhAIBN0CIfvtjrxfz71f5NEdDeLw4mnul9COUoiIEBmxm93
z1Q/BWHeq3H6n3htl0roYKARqmy6nURlGOjgj9Hf2pWrQSxjZfZCQuYfQqQcdCBJ
9NSSDuO+O1X9OGh0OuTfmiuVv+nROIsWJCA127jQFTAuL2okueHp57a1veYPWd3f
lZyrA7TFQoFIYcw8BheFY24oy9eI0c5Ax/9hUay7uiPJQqd9Jw0eU5DPIj9X9f8a
BQycehv74kdfRcvuiKWgVHGD99PTxbyyfoWnsRrPkcuLObp8LJ2yxXnD4IBzBjBP
XYFS4r9DVYVdZMSXrOktfjC14VJQUwysJI57oleN/7EFuiMzpgijtDhC9lzZvF11
lYL/TZrbVi8bONJRBSyQYvGOTO7qG66qU3SFusbDwkswveAuyKx+JcwyXwIDAQAB
o4HXMIHUMAkGA1UdEwQCMAAwHQYDVR0OBBYEFE4Bi37Cd5ThaLPEKTUkBQvehEqJ
MB8GA1UdIwQYMBaAFKT9uTkbgbOq64gd1IGptRFwzKfhMDUGCCsGAQUFBwEBBCkw
JzAlBggrBgEFBQcwAYYZaHR0cDovL3NlcnZlci53MS5maTo4ODg4LzAhBgNVHREE
GjAYghZzZXJ2ZXItcG9saWNpZXMyLncxLmZpMBgGA1UdIAQRMA8wDQYLKwYBBAGC
vmgBAwIwEwYDVR0lBAwwCgYIKwYBBQUHAwEwDQYJKoZIhvcNAQELBQADggEBAIhX
eCAH1Uu6lygzjsz7mGKZRiT3wUvUUSxakM7op4EMPtXoGacq1AxkSpkACjobCUwT
A3a189tmCVZ5D2Fc6hv0Uj1SU+/dzdpYINs6zWts9r8/FhoSDS6tN4BBLXxsITix
ofggYAOx7nULv8kC+EaaZhk7i106O6c50P2Id7A5z3UL+/BnVkEeYyZc/lrLbr6q
NuAEpFyuLrJ/n1XUgdjNqU7ntqi7GXBrY6xRGz+xFsJcs4BKLdrZGB0IWAqZuB5t
T4fya7t2ktSK8RNmvzmrIpoXhO7B+RSIAjwDEWue4NX8T+wROD16fOcA2azz/bww
5Qzl3CeyYT8gBEdyTEI=
-----END CERTIFICATE-----
