Certificate:
    Data:
        Version: 3 (0x2)
        Serial Number:
            ad:8c:09:e8:fb:a2:88:d5
        Signature Algorithm: sha384WithRSAEncryption
        Issuer: C=FI, L=Helsinki, O=w1.fi, CN=Suite B RSA 3k Root CA
        Validity
            Not Before: Apr 17 18:26:29 2024 GMT
            Not After : Apr 17 18:26:29 2026 GMT
        Subject: C=FI, O=w1.fi, CN=user-rsa3072
        Subject Public Key Info:
            Public Key Algorithm: rsaEncryption
                Public-Key: (3072 bit)
                Modulus:
                    00:92:77:67:8e:44:34:83:a8:37:f9:a9:c4:72:5c:
                    71:72:9d:35:1d:3d:8c:34:22:5c:24:f8:87:81:de:
                    de:ac:a5:93:77:c5:38:a4:82:9c:8c:06:9b:14:8b:
                    52:09:32:4c:31:c5:f8:e9:2f:64:8a:39:0a:70:9e:
                    4e:8a:9c:bc:a5:ab:78:18:52:44:75:fe:c3:00:61:
                    e7:1f:45:c0:12:72:e4:38:9e:28:9d:f6:76:60:70:
                    b3:7b:11:ca:90:98:2a:ea:26:c0:5c:ae:a9:12:cc:
                    52:11:a6:02:ac:e8:59:56:7a:a8:93:ec:fd:06:ee:
                    ac:e8:af:17:68:57:4f:39:ca:d4:48:49:8a:b4:8d:
                    3e:21:51:a3:96:e7:9f:24:e5:f5:10:e7:36:fe:8e:
                    33:b2:7d:22:66:8f:42:65:cf:0f:4f:cc:a3:24:0f:
                    e3:ba:98:89:35:a7:54:99:ec:81:47:c4:2f:b2:3b:
                    3b:b2:4c:ce:a4:a8:5a:66:10:40:8e:0d:7d:67:d8:
                    ed:1a:fd:e5:61:16:db:f5:4c:73:40:39:e3:7d:6f:
                    27:26:08:68:18:02:df:3b:5a:04:0a:08:c5:53:bb:
                    1d:00:91:6c:f6:38:2a:f0:aa:9f:2b:36:6e:95:24:
                    a7:1a:84:d8:5c:6a:f8:d5:3f:62:0f:20:4b:b7:96:
                    c6:c2:1b:f8:81:64:13:15:7a:9b:5d:98:ee:0f:d9:
                    73:37:d5:3c:9f:35:52:93:df:72:9d:89:d4:9f:20:
                    f2:13:85:12:00:7c:23:27:ce:f9:dd:e2:b7:82:09:
                    a2:fa:26:54:22:c7:fd:b4:fa:1a:d3:6d:29:8f:1b:
                    67:13:2f:d8:e2:f0:5c:75:9e:aa:79:fc:c1:b7:48:
                    5d:08:12:01:37:78:13:f9:53:37:3a:a8:21:38:e7:
                    5f:74:fb:85:53:6b:21:6b:82:c9:a5:41:2c:a3:39:
                    74:14:a0:5c:03:c8:13:17:55:a6:15:45:52:3c:b9:
                    b9:3f:fe:d9:a8:14:6f:20:c5:21
                Exponent: 65537 (0x10001)
        X509v3 extensions:
            X509v3 Basic Constraints: 
                CA:FALSE
            X509v3 Subject Key Identifier: 
                B1:4F:36:17:24:40:AD:6B:05:33:87:C4:AD:4F:4A:53:AF:F5:D6:23
            X509v3 Authority Key Identifier: 
                21:F7:EF:DA:C3:34:3A:ED:CD:D5:50:C0:B3:BA:09:EE:3F:80:D7:70
            X509v3 Subject Alternative Name: 
                email:user-rsa3072@w1.fi
            X509v3 Extended Key Usage: 
                TLS Web Client Authentication
            X509v3 Key Usage: 
                Digital Signature, Key Encipherment
    Signature Algorithm: sha384WithRSAEncryption
    Signature Value:
        28:44:46:06:f5:da:f7:45:cd:b5:e3:28:d3:e1:43:f4:d1:2d:
        2c:19:44:6e:a0:85:fb:30:ba:6e:1a:f9:51:58:5e:d7:7a:c5:
        84:af:31:a5:1f:e6:18:c5:71:d0:c6:cf:43:bb:c8:e8:f3:34:
        aa:bd:e0:a1:70:74:5a:e8:5f:8d:71:11:b7:22:5a:ae:1a:3c:
        32:a2:98:56:84:89:d7:0e:0e:b6:3b:06:de:9a:73:7e:06:1c:
        6d:78:70:ad:63:e8:e9:fd:e9:48:d9:47:c7:b7:4d:1f:cb:41:
        ba:9d:9e:de:1b:7b:10:da:64:04:08:96:47:75:d8:9b:b1:e0:
        51:74:57:9f:7f:02:62:c7:69:1d:34:91:e4:bc:7b:0b:55:a7:
        66:31:16:70:8e:24:22:33:c7:3b:21:36:03:27:eb:d6:32:d3:
        fe:63:39:e4:0e:b4:96:84:b7:e2:67:2f:51:3b:6d:9a:ee:17:
        e3:a3:99:21:3d:31:22:1d:d3:8d:13:af:de:f0:bf:3a:10:f6:
        fb:03:fe:d3:30:2b:08:c0:0c:07:9a:1c:36:f3:8c:04:a7:10:
        90:5f:b2:5e:90:b3:6d:60:16:3a:6d:46:ef:b1:4c:3a:c3:9c:
        b1:9d:76:bf:2f:0e:9b:a2:16:20:cf:6c:27:9c:d3:98:36:50:
        2a:1b:9b:e4:31:94:3d:ab:6e:fd:2f:57:ca:6f:c2:65:b6:98:
        0c:a7:9b:61:d6:28:e8:62:10:5c:22:f7:a9:cd:52:05:11:1a:
        14:85:42:85:5e:d6:3c:10:7d:d3:52:0b:e6:fb:f9:92:a5:b0:
        75:59:74:18:68:78:48:f2:69:d6:27:a6:a6:a1:a3:00:b7:66:
        21:ed:8d:7a:cb:95:9e:04:b5:9e:94:90:7c:6f:5f:55:5c:5a:
        83:82:55:2c:e7:5c:94:31:74:2c:6a:e2:20:04:f5:ee:f7:bf:
        07:94:67:3c:c9:9b:17:c6:6b:08:c0:31:e3:49:9e:09:ab:72:
        49:20:0a:75:58:c1
-----BEGIN CERTIFICATE-----
MIIEmDCCAwCgAwIBAgIJAK2MCej7oojVMA0GCSqGSIb3DQEBDAUAMFExCzAJBgNV
BAYTAkZJMREwDwYDVQQHDAhIZWxzaW5raTEOMAwGA1UECgwFdzEuZmkxHzAdBgNV
BAMMFlN1aXRlIEIgUlNBIDNrIFJvb3QgQ0EwHhcNMjQwNDE3MTgyNjI5WhcNMjYw
NDE3MTgyNjI5WjA0MQswCQYDVQQGEwJGSTEOMAwGA1UECgwFdzEuZmkxFTATBgNV
BAMMDHVzZXItcnNhMzA3MjCCAaIwDQYJKoZIhvcNAQEBBQADggGPADCCAYoCggGB
AJJ3Z45ENIOoN/mpxHJccXKdNR09jDQiXCT4h4He3qylk3fFOKSCnIwGmxSLUgky
TDHF+OkvZIo5CnCeToqcvKWreBhSRHX+wwBh5x9FwBJy5DieKJ32dmBws3sRypCY
KuomwFyuqRLMUhGmAqzoWVZ6qJPs/QburOivF2hXTznK1EhJirSNPiFRo5bnnyTl
9RDnNv6OM7J9ImaPQmXPD0/MoyQP47qYiTWnVJnsgUfEL7I7O7JMzqSoWmYQQI4N
fWfY7Rr95WEW2/VMc0A5431vJyYIaBgC3ztaBAoIxVO7HQCRbPY4KvCqnys2bpUk
pxqE2Fxq+NU/Yg8gS7eWxsIb+IFkExV6m12Y7g/ZczfVPJ81UpPfcp2J1J8g8hOF
EgB8IyfO+d3it4IJovomVCLH/bT6GtNtKY8bZxMv2OLwXHWeqnn8wbdIXQgSATd4
E/lTNzqoITjnX3T7hVNrIWuCyaVBLKM5dBSgXAPIExdVphVFUjy5uT/+2agUbyDF
IQIDAQABo4GPMIGMMAkGA1UdEwQCMAAwHQYDVR0OBBYEFLFPNhckQK1rBTOHxK1P
SlOv9dYjMB8GA1UdIwQYMBaAFCH379rDNDrtzdVQwLO6Ce4/gNdwMB0GA1UdEQQW
MBSBEnVzZXItcnNhMzA3MkB3MS5maTATBgNVHSUEDDAKBggrBgEFBQcDAjALBgNV
HQ8EBAMCBaAwDQYJKoZIhvcNAQEMBQADggGBAChERgb12vdFzbXjKNPhQ/TRLSwZ
RG6ghfswum4a+VFYXtd6xYSvMaUf5hjFcdDGz0O7yOjzNKq94KFwdFroX41xEbci
Wq4aPDKimFaEidcODrY7Bt6ac34GHG14cK1j6On96UjZR8e3TR/LQbqdnt4bexDa
ZAQIlkd12Jux4FF0V59/AmLHaR00keS8ewtVp2YxFnCOJCIzxzshNgMn69Yy0/5j
OeQOtJaEt+JnL1E7bZruF+OjmSE9MSId040Tr97wvzoQ9vsD/tMwKwjADAeaHDbz
jASnEJBfsl6Qs21gFjptRu+xTDrDnLGddr8vDpuiFiDPbCec05g2UCobm+QxlD2r
bv0vV8pvwmW2mAynm2HWKOhiEFwi96nNUgURGhSFQoVe1jwQfdNSC+b7+ZKlsHVZ
dBhoeEjyadYnpqahowC3ZiHtjXrLlZ4EtZ6UkHxvX1VcWoOCVSznXJQxdCxq4iAE
9e73vweUZzzJmxfGawjAMeNJngmrckkgCnVYwQ==
-----END CERTIFICATE-----
