Certificate:
    Data:
        Version: 3 (0x2)
        Serial Number:
            d8:d3:e3:a6:cb:e3:cd:8a
        Signature Algorithm: sha256WithRSAEncryption
        Issuer: C=FI, L=Tuusula, O=w1.fi, CN=Root CA
        Validity
            Not Before: Apr 17 18:25:37 2024 GMT
            Not After : Apr 17 18:25:37 2025 GMT
        Subject: C=FI, O=w1.fi, CN=server5.w1.fi
        Subject Public Key Info:
            Public Key Algorithm: rsaEncryption
                Public-Key: (2048 bit)
                Modulus:
                    00:a5:94:60:80:b8:c8:61:18:8c:02:9d:dc:cc:c4:
                    74:d1:17:b5:3b:47:9c:38:0f:3b:92:74:fb:ea:27:
                    45:44:8a:9a:2a:4d:10:25:8e:77:ce:1a:09:c9:73:
                    19:fe:dc:70:36:5e:8c:fa:8f:4c:84:bb:f7:72:e4:
                    94:4f:fc:47:2a:7d:89:92:a3:2b:5a:69:9c:c8:5a:
                    10:39:32:61:7d:0a:78:19:b4:36:eb:ac:4c:d6:af:
                    75:00:14:4e:15:2f:5f:83:ee:62:f5:ac:7b:0c:81:
                    ba:a2:08:36:7b:f0:ef:63:31:62:fb:86:a6:cf:da:
                    36:83:44:8d:75:28:b6:e4:10:f3:32:dd:8a:6c:5b:
                    ee:4f:f1:1e:53:0b:13:7c:c7:bc:f7:9e:32:80:1e:
                    63:3e:92:75:2f:c5:21:5e:f0:2a:ac:e2:34:e4:17:
                    b2:34:f7:e8:2a:12:8a:21:b8:03:e7:b6:d8:f8:32:
                    b5:fe:71:45:52:98:de:b9:3d:41:f5:90:a5:76:83:
                    c1:18:ca:50:5d:2c:52:8b:6e:4f:a7:5b:bb:d8:e3:
                    14:25:70:de:d1:c7:9d:59:cf:24:46:c7:f5:6e:6f:
                    83:66:ed:1b:1d:3e:51:04:94:67:64:df:51:22:3c:
                    c0:e1:24:0a:37:6a:dc:6a:8b:fd:45:5b:96:2d:03:
                    ac:63
                Exponent: 65537 (0x10001)
        X509v3 extensions:
            X509v3 Basic Constraints: 
                CA:FALSE
            X509v3 Subject Key Identifier: 
                32:9F:9F:30:24:73:73:CB:8D:53:3A:80:23:EB:5B:5D:4C:DD:06:01
            X509v3 Authority Key Identifier: 
                A4:FD:B9:39:1B:81:B3:AA:EB:88:1D:D4:81:A9:B5:11:70:CC:A7:E1
            Authority Information Access: 
                OCSP - URI:http://server.w1.fi:8888/
            X509v3 Extended Key Usage: 
                TLS Web Client Authentication
    Signature Algorithm: sha256WithRSAEncryption
    Signature Value:
        0f:3d:94:ab:11:bc:11:cd:b7:1b:31:8e:29:8b:78:b5:87:07:
        af:29:4f:89:23:a4:6f:b0:b4:87:0e:82:0d:b6:29:9e:4d:3b:
        f9:c3:82:5d:84:a6:67:05:69:d3:45:57:bc:8d:db:4b:72:70:
        2f:c9:44:42:8d:44:4f:8a:a1:0d:fb:31:47:ac:fb:84:e8:09:
        47:73:86:34:f5:90:bd:c2:99:a2:e7:6e:a0:24:67:73:19:0c:
        e2:41:97:9e:c0:fe:e8:12:8d:1a:f1:ad:c4:6e:69:95:5a:de:
        6b:c4:29:01:bd:a4:4c:0b:1b:ca:db:8d:bc:7f:56:92:48:9c:
        85:3b:0b:19:4e:3d:94:a9:fb:c4:ca:3d:0a:20:12:46:c6:eb:
        66:55:17:01:c1:f7:c7:4c:b2:f3:05:68:7b:e3:37:ff:af:61:
        d6:ba:83:4e:e7:d0:a6:b7:26:6c:5c:7d:d1:a3:0e:a0:3d:b6:
        23:67:4a:9c:13:12:a3:87:4e:ba:77:c2:df:3e:45:7d:29:e5:
        07:d5:c6:1c:5a:1a:62:77:03:d9:9c:63:d8:6d:43:e9:94:fb:
        5c:88:1b:22:dd:bb:58:13:d0:a9:22:fe:b2:58:8e:9d:1a:c6:
        c2:5b:6f:de:f3:07:1b:0f:4a:79:d5:df:81:24:44:0c:ef:26:
        ea:8d:2e:e3
-----BEGIN CERTIFICATE-----
MIIDlDCCAnygAwIBAgIJANjT46bL482KMA0GCSqGSIb3DQEBCwUAMEExCzAJBgNV
BAYTAkZJMRAwDgYDVQQHDAdUdXVzdWxhMQ4wDAYDVQQKDAV3MS5maTEQMA4GA1UE
AwwHUm9vdCBDQTAeFw0yNDA0MTcxODI1MzdaFw0yNTA0MTcxODI1MzdaMDUxCzAJ
BgNVBAYTAkZJMQ4wDAYDVQQKDAV3MS5maTEWMBQGA1UEAwwNc2VydmVyNS53MS5m
aTCCASIwDQYJKoZIhvcNAQEBBQADggEPADCCAQoCggEBAKWUYIC4yGEYjAKd3MzE
dNEXtTtHnDgPO5J0++onRUSKmipNECWOd84aCclzGf7ccDZejPqPTIS793LklE/8
Ryp9iZKjK1ppnMhaEDkyYX0KeBm0NuusTNavdQAUThUvX4PuYvWsewyBuqIINnvw
72MxYvuGps/aNoNEjXUotuQQ8zLdimxb7k/xHlMLE3zHvPeeMoAeYz6SdS/FIV7w
KqziNOQXsjT36CoSiiG4A+e22Pgytf5xRVKY3rk9QfWQpXaDwRjKUF0sUotuT6db
u9jjFCVw3tHHnVnPJEbH9W5vg2btGx0+UQSUZ2TfUSI8wOEkCjdq3GqL/UVbli0D
rGMCAwEAAaOBmjCBlzAJBgNVHRMEAjAAMB0GA1UdDgQWBBQyn58wJHNzy41TOoAj
61tdTN0GATAfBgNVHSMEGDAWgBSk/bk5G4GzquuIHdSBqbURcMyn4TA1BggrBgEF
BQcBAQQpMCcwJQYIKwYBBQUHMAGGGWh0dHA6Ly9zZXJ2ZXIudzEuZmk6ODg4OC8w
EwYDVR0lBAwwCgYIKwYBBQUHAwIwDQYJKoZIhvcNAQELBQADggEBAA89lKsRvBHN
txsxjimLeLWHB68pT4kjpG+wtIcOgg22KZ5NO/nDgl2EpmcFadNFV7yN20tycC/J
REKNRE+KoQ37MUes+4ToCUdzhjT1kL3CmaLnbqAkZ3MZDOJBl57A/ugSjRrxrcRu
aZVa3mvEKQG9pEwLG8rbjbx/VpJInIU7CxlOPZSp+8TKPQogEkbG62ZVFwHB98dM
svMFaHvjN/+vYda6g07n0Ka3JmxcfdGjDqA9tiNnSpwTEqOHTrp3wt8+RX0p5QfV
xhxaGmJ3A9mcY9htQ+mU+1yIGyLdu1gT0Kki/rJYjp0axsJbb97zBxsPSnnV34Ek
RAzvJuqNLuM=
-----END CERTIFICATE-----
