Certificate:
    Data:
        Version: 3 (0x2)
        Serial Number: 34 (0x22)
        Signature Algorithm: md5WithRSAEncryption
        Issuer: CN=ca-cert, C=US, ST=Washington, L=Seattle, O=Castaglia, OU=Castaglia Research and Development, OU=TJ Saunders/emailAddress=tj@castaglia.org
        Validity
            Not Before: Mar 11 15:25:13 2009 GMT
            Not After : Mar 11 15:25:13 2010 GMT
        Subject: CN=client-cert, C=US/emailAddress=tj@castaglia.org, O=Castaglia, OU=Castaglia Research and Development, OU=TJ Saunders, ST=Washington
        Subject Public Key Info:
            Public Key Algorithm: rsaEncryption
            RSA Public Key: (1024 bit)
                Modulus (1024 bit):
                    00:ca:9a:40:e2:20:6c:88:da:36:d7:81:ae:13:49:
                    49:29:72:e5:1f:61:a0:6e:e1:06:ee:76:9f:29:b9:
                    ca:d6:24:27:95:66:88:fd:8d:b7:cf:28:88:4b:5e:
                    25:cb:d3:13:ae:4e:a9:dd:0c:a3:ec:ed:e7:43:65:
                    10:fb:15:90:06:8b:ae:f0:98:6a:b4:f9:f0:b4:94:
                    fe:7c:70:a9:89:a9:5f:39:6c:e7:57:0b:4b:00:13:
                    95:99:58:61:75:e0:14:28:05:c7:e9:d4:e0:05:81:
                    cb:89:50:81:7b:90:90:ce:72:3b:a2:76:e8:1a:73:
                    b9:bd:51:23:44:8b:89:d0:13
                Exponent: 65537 (0x10001)
        X509v3 extensions:
            X509v3 Basic Constraints: 
                CA:FALSE
            Netscape Comment: 
                CertTool Certificate
            X509v3 Subject Alternative Name: 
                DNS:www.castaglia.org, email:tj@castaglia.org, IP Address:127.0.0.1, URI:http://www.castaglia.org/proftpd/
            X509v3 Subject Key Identifier: 
                B8:DF:15:49:2A:1A:52:27:AA:1E:FA:AD:F7:B8:DB:0A:8C:21:59:77
            X509v3 Authority Key Identifier: 
                keyid:EE:A9:CD:BC:3E:F7:10:98:BF:4A:52:71:59:0F:87:FC:99:B8:96:C3
                DirName:/CN=ca-cert/C=US/ST=Washington/L=Seattle/O=Castaglia/OU=Castaglia Research and Development/OU=TJ Saunders/emailAddress=tj@castaglia.org
                serial:00

    Signature Algorithm: md5WithRSAEncryption
        79:d1:36:78:53:4a:d9:a1:2b:38:2a:28:3f:fe:7e:a4:0e:d4:
        15:80:24:8c:b6:19:cc:86:1b:e4:76:ce:4a:f0:8f:67:4f:7e:
        43:1d:75:c9:b5:51:e9:58:f7:a5:fe:fe:c3:dc:ad:32:33:a1:
        23:70:65:83:d4:cb:28:78:7e:49:4a:bd:b8:54:45:13:e4:71:
        ea:9b:15:43:0b:30:62:3e:69:f7:b7:d4:8d:11:f5:1f:9b:cc:
        eb:7d:1d:5d:b9:e2:4e:9b:69:b7:19:bc:05:64:ec:8d:13:b0:
        dc:46:ba:3f:5d:93:fe:a9:2d:f6:d8:02:8d:88:c2:b4:e4:68:
        dd:43
-----BEGIN CERTIFICATE-----
MIIEgjCCA+ugAwIBAgIBIjANBgkqhkiG9w0BAQQFADCBvjEQMA4GA1UEAxMHY2Et
Y2VydDELMAkGA1UEBhMCVVMxEzARBgNVBAgTCldhc2hpbmd0b24xEDAOBgNVBAcT
B1NlYXR0bGUxEjAQBgNVBAoTCUNhc3RhZ2xpYTErMCkGA1UECxMiQ2FzdGFnbGlh
IFJlc2VhcmNoIGFuZCBEZXZlbG9wbWVudDEUMBIGA1UECxMLVEogU2F1bmRlcnMx
HzAdBgkqhkiG9w0BCQEWEHRqQGNhc3RhZ2xpYS5vcmcwHhcNMDkwMzExMTUyNTEz
WhcNMTAwMzExMTUyNTEzWjCBsDEUMBIGA1UEAxMLY2xpZW50LWNlcnQxCzAJBgNV
BAYTAlVTMR8wHQYJKoZIhvcNAQkBFhB0akBjYXN0YWdsaWEub3JnMRIwEAYDVQQK
EwlDYXN0YWdsaWExKzApBgNVBAsTIkNhc3RhZ2xpYSBSZXNlYXJjaCBhbmQgRGV2
ZWxvcG1lbnQxFDASBgNVBAsTC1RKIFNhdW5kZXJzMRMwEQYDVQQIEwpXYXNoaW5n
dG9uMIGfMA0GCSqGSIb3DQEBAQUAA4GNADCBiQKBgQDKmkDiIGyI2jbXga4TSUkp
cuUfYaBu4Qbudp8pucrWJCeVZoj9jbfPKIhLXiXL0xOuTqndDKPs7edDZRD7FZAG
i67wmGq0+fC0lP58cKmJqV85bOdXC0sAE5WZWGF14BQoBcfp1OAFgcuJUIF7kJDO
cjuidugac7m9USNEi4nQEwIDAQABo4IBmjCCAZYwCQYDVR0TBAIwADAjBglghkgB
hvhCAQ0EFhYUQ2VydFRvb2wgQ2VydGlmaWNhdGUwVwYDVR0RBFAwToIRd3d3LmNh
c3RhZ2xpYS5vcmeBEHRqQGNhc3RhZ2xpYS5vcmeHBH8AAAGGIWh0dHA6Ly93d3cu
Y2FzdGFnbGlhLm9yZy9wcm9mdHBkLzAdBgNVHQ4EFgQUuN8VSSoaUieqHvqt97jb
CowhWXcwgesGA1UdIwSB4zCB4IAU7qnNvD73EJi/SlJxWQ+H/Jm4lsOhgcSkgcEw
gb4xEDAOBgNVBAMTB2NhLWNlcnQxCzAJBgNVBAYTAlVTMRMwEQYDVQQIEwpXYXNo
aW5ndG9uMRAwDgYDVQQHEwdTZWF0dGxlMRIwEAYDVQQKEwlDYXN0YWdsaWExKzAp
BgNVBAsTIkNhc3RhZ2xpYSBSZXNlYXJjaCBhbmQgRGV2ZWxvcG1lbnQxFDASBgNV
BAsTC1RKIFNhdW5kZXJzMR8wHQYJKoZIhvcNAQkBFhB0akBjYXN0YWdsaWEub3Jn
ggEAMA0GCSqGSIb3DQEBBAUAA4GBAHnRNnhTStmhKzgqKD/+fqQO1BWAJIy2GcyG
G+R2zkrwj2dPfkMddcm1UelY96X+/sPcrTIzoSNwZYPUyyh4fklKvbhURRPkceqb
FUMLMGI+afe31I0R9R+bzOt9HV254k6babcZvAVk7I0TsNxGuj9dk/6pLfbYAo2I
wrTkaN1D
-----END CERTIFICATE-----
-----BEGIN RSA PRIVATE KEY-----
MIICXQIBAAKBgQDKmkDiIGyI2jbXga4TSUkpcuUfYaBu4Qbudp8pucrWJCeVZoj9
jbfPKIhLXiXL0xOuTqndDKPs7edDZRD7FZAGi67wmGq0+fC0lP58cKmJqV85bOdX
C0sAE5WZWGF14BQoBcfp1OAFgcuJUIF7kJDOcjuidugac7m9USNEi4nQEwIDAQAB
AoGAE7OeXZ7zjvdRX/GPYPa+c5Zlq4CN3lpplyTX43HaxKotYzzeU3HFjxKM9m9I
U6LKBihGImXJRw/3bjlUxmXZZGz+OoqoT8Bl8GZS2CzAkAWG1MKDvyUei1Fx+Igm
0HAR3o4H9UUW2Mbw76cbJoRiGXgutZHmXYerEs2KW01GfyECQQD+bC2GwzzMrG3f
u8IV1y1dss08PPg3cJqxylO9XAWMHbkazH2CSs3AYbGPQQda17dHGwHIhjKzhHsC
x/8QwgNRAkEAy9vTiwMUXgt8FSzvorxRC2iGU5e0jfiBa7RLvx6kO0lHHSxgq+pD
DTmJBWMYXGvuTgcMtms/W+u63sJki56cIwJBAOfHNVJn2qO7Ef2Y1x9+f920XjRa
duZKtyLw54jCpGsZSOCZGl3wN7DjTxbqbwDbNCSa/ezoFJhmQIowGLXziYECQCK1
PKEQVylj3y5jxjD4yvucQjJ9Q7pgMvi5a6QQfXmyki7/XT4n1l6sCw4lvwINRjd2
r81nGRR3YAuJIUE8Me0CQQCTcP+Ield4D032R53JZ/C49eX7vvft7qXyxiirnuYS
oCygf+JyCwdTnPRiLZhT4m71YN0mjhjop7t0Bpk2MtpO
-----END RSA PRIVATE KEY-----
