Certificate:
    Data:
        Version: 3 (0x2)
        Serial Number: 28 (0x1c)
        Signature Algorithm: md5WithRSAEncryption
        Issuer: CN=ca-cert, C=US, ST=Washington, L=Seattle, O=Castaglia, OU=Castaglia Research and Development, OU=TJ Saunders/emailAddress=tj@castaglia.org
        Validity
            Not Before: Dec  7 20:46:18 2008 GMT
            Not After : Dec  7 20:46:18 2009 GMT
        Subject: CN=server-cert, C=US/emailAddress=tj@castaglia.org, O=Castaglia, OU=Castaglia Research and Development, OU=TJ Saunders, ST=Washington
        Subject Public Key Info:
            Public Key Algorithm: rsaEncryption
            RSA Public Key: (1024 bit)
                Modulus (1024 bit):
                    00:d4:33:7b:09:e0:78:b5:8b:7e:ad:ce:db:8f:b9:
                    ec:f9:c6:65:e9:94:4b:7f:b5:99:8f:de:31:ee:62:
                    4a:8a:1a:7e:fe:f0:52:ad:2a:e8:81:1d:6b:0b:0a:
                    e6:9f:89:6a:43:0b:49:05:04:ce:d2:a3:db:11:8e:
                    20:6c:e3:ef:ea:4e:3a:14:9a:78:f4:bc:3a:73:38:
                    4b:ed:07:05:bb:a6:fd:a5:fa:0f:73:fe:3f:ba:cd:
                    6b:e4:e2:3a:f1:53:70:a2:b8:a0:5b:1a:d5:4c:42:
                    60:0a:38:70:fd:6c:d4:71:1d:53:f0:78:c4:cf:4b:
                    82:ff:61:a4:4d:39:be:ee:c5
                Exponent: 65537 (0x10001)
        X509v3 extensions:
            X509v3 Basic Constraints: 
                CA:FALSE
            Netscape Comment: 
                CertTool Certificate
            X509v3 Subject Alternative Name: 
                DNS:imp.castaglia.org, email:tj@castaglia.org, IP Address:127.0.0.1, URI:http://www.castaglia.org/proftpd/
            X509v3 Subject Key Identifier: 
                65:96:02:3F:ED:C6:58:84:81:B9:FA:D9:50:81:04:08:EC:4C:73:E4
            X509v3 Authority Key Identifier: 
                keyid:EE:A9:CD:BC:3E:F7:10:98:BF:4A:52:71:59:0F:87:FC:99:B8:96:C3
                DirName:/CN=ca-cert/C=US/ST=Washington/L=Seattle/O=Castaglia/OU=Castaglia Research and Development/OU=TJ Saunders/emailAddress=tj@castaglia.org
                serial:00

    Signature Algorithm: md5WithRSAEncryption
        45:d2:45:9a:4e:ce:fe:67:e7:5a:6e:ca:b7:47:74:e8:d2:ed:
        01:82:5c:b8:1e:bc:7e:c2:d3:c3:9e:fc:b5:27:26:eb:a1:83:
        3d:ba:2c:ee:60:d9:87:cd:8d:cd:9e:65:69:f3:54:4e:61:29:
        3b:00:81:39:5e:69:04:d3:f5:f4:cd:08:dd:08:21:c2:f2:1b:
        81:60:8c:0d:fe:02:a0:cd:97:53:2b:dd:ed:6b:9b:26:56:cb:
        3e:39:dd:98:87:df:7c:67:9e:2d:89:cd:26:64:e0:26:1e:c0:
        4a:29:c4:fc:b0:06:bb:8f:76:d9:6b:79:b3:f3:81:de:a7:28:
        ef:86
-----BEGIN CERTIFICATE-----
MIIEgjCCA+ugAwIBAgIBHDANBgkqhkiG9w0BAQQFADCBvjEQMA4GA1UEAxMHY2Et
Y2VydDELMAkGA1UEBhMCVVMxEzARBgNVBAgTCldhc2hpbmd0b24xEDAOBgNVBAcT
B1NlYXR0bGUxEjAQBgNVBAoTCUNhc3RhZ2xpYTErMCkGA1UECxMiQ2FzdGFnbGlh
IFJlc2VhcmNoIGFuZCBEZXZlbG9wbWVudDEUMBIGA1UECxMLVEogU2F1bmRlcnMx
HzAdBgkqhkiG9w0BCQEWEHRqQGNhc3RhZ2xpYS5vcmcwHhcNMDgxMjA3MjA0NjE4
WhcNMDkxMjA3MjA0NjE4WjCBsDEUMBIGA1UEAxMLc2VydmVyLWNlcnQxCzAJBgNV
BAYTAlVTMR8wHQYJKoZIhvcNAQkBFhB0akBjYXN0YWdsaWEub3JnMRIwEAYDVQQK
EwlDYXN0YWdsaWExKzApBgNVBAsTIkNhc3RhZ2xpYSBSZXNlYXJjaCBhbmQgRGV2
ZWxvcG1lbnQxFDASBgNVBAsTC1RKIFNhdW5kZXJzMRMwEQYDVQQIEwpXYXNoaW5n
dG9uMIGfMA0GCSqGSIb3DQEBAQUAA4GNADCBiQKBgQDUM3sJ4Hi1i36tztuPuez5
xmXplEt/tZmP3jHuYkqKGn7+8FKtKuiBHWsLCuafiWpDC0kFBM7So9sRjiBs4+/q
TjoUmnj0vDpzOEvtBwW7pv2l+g9z/j+6zWvk4jrxU3CiuKBbGtVMQmAKOHD9bNRx
HVPweMTPS4L/YaRNOb7uxQIDAQABo4IBmjCCAZYwCQYDVR0TBAIwADAjBglghkgB
hvhCAQ0EFhYUQ2VydFRvb2wgQ2VydGlmaWNhdGUwVwYDVR0RBFAwToIRaW1wLmNh
c3RhZ2xpYS5vcmeBEHRqQGNhc3RhZ2xpYS5vcmeHBH8AAAGGIWh0dHA6Ly93d3cu
Y2FzdGFnbGlhLm9yZy9wcm9mdHBkLzAdBgNVHQ4EFgQUZZYCP+3GWISBufrZUIEE
COxMc+QwgesGA1UdIwSB4zCB4IAU7qnNvD73EJi/SlJxWQ+H/Jm4lsOhgcSkgcEw
gb4xEDAOBgNVBAMTB2NhLWNlcnQxCzAJBgNVBAYTAlVTMRMwEQYDVQQIEwpXYXNo
aW5ndG9uMRAwDgYDVQQHEwdTZWF0dGxlMRIwEAYDVQQKEwlDYXN0YWdsaWExKzAp
BgNVBAsTIkNhc3RhZ2xpYSBSZXNlYXJjaCBhbmQgRGV2ZWxvcG1lbnQxFDASBgNV
BAsTC1RKIFNhdW5kZXJzMR8wHQYJKoZIhvcNAQkBFhB0akBjYXN0YWdsaWEub3Jn
ggEAMA0GCSqGSIb3DQEBBAUAA4GBAEXSRZpOzv5n51puyrdHdOjS7QGCXLgevH7C
08Oe/LUnJuuhgz26LO5g2YfNjc2eZWnzVE5hKTsAgTleaQTT9fTNCN0IIcLyG4Fg
jA3+AqDNl1Mr3e1rmyZWyz453ZiH33xnni2JzSZk4CYewEopxPywBruPdtlrebPz
gd6nKO+G
-----END CERTIFICATE-----
-----BEGIN RSA PRIVATE KEY-----
MIICXgIBAAKBgQDUM3sJ4Hi1i36tztuPuez5xmXplEt/tZmP3jHuYkqKGn7+8FKt
KuiBHWsLCuafiWpDC0kFBM7So9sRjiBs4+/qTjoUmnj0vDpzOEvtBwW7pv2l+g9z
/j+6zWvk4jrxU3CiuKBbGtVMQmAKOHD9bNRxHVPweMTPS4L/YaRNOb7uxQIDAQAB
AoGAEvHhqzkSLcsdbTEJoyRLRuVylc76ipVQ92oz9P9rfjbtXZ9hEjrBdT2GH/9C
Jb4j8YZhZ4RNXrroRQH2XSJgedYJKxmBTN+TZGpMnrLae3TaveoFWAH9XlDG03Px
CbPX7h70zFaK9TFaad4fEkkix9JZon2xrAIwJMbypZxCBoUCQQDyyOoEZbVtFXxr
xYXXmWJ/flMN69hg42QVHy8j8p7EJsOhW2rmnAm0cxtHqZ9eFC8KbVZhRpbLh4Um
GwlXabVrAkEA38BlwT36RaNpRVN5dBBowms1Iwm/m+Z/fdbUKXTVx+ClhEMWeR89
ByOdfg9/pqjDtXe8/hC4LYttUkTxJqXIjwJBAKsOsgs9GhHshIhuV/nq4UJQ3/W8
CO1i6V4UZaNfS0uKwGVMwsoOgKv6OetI8LdZYzdmh+jr0k0+g6qwe+lx2lcCQQCc
gcZrGcACj9/llxLgJU4xl62uWXZGRT8uNWNnsAqM6cy8q/R/OmOEp9vUvmCKoYdr
Wlq+19EMQndwUTrgzptvAkEAmgCbjI22ttrBwvrlnzqCcjlWfLTNShAHGt7oUboO
96OICo2Eoeaali30HJzADWUxPU5PMTHMhg3zOYOkDb9ijg==
-----END RSA PRIVATE KEY-----
