Certificate:
    Data:
        Version: 3 (0x2)
        Serial Number:
            ad:8c:09:e8:fb:a2:88:d6
        Signature Algorithm: sha384WithRSAEncryption
        Issuer: C=FI, L=Helsinki, O=w1.fi, CN=Suite B RSA 3k Root CA
        Validity
            Not Before: Apr 17 18:26:29 2024 GMT
            Not After : Apr 17 18:26:29 2026 GMT
        Subject: C=FI, O=w1.fi, CN=user-rsa3072-rsa2048
        Subject Public Key Info:
            Public Key Algorithm: rsaEncryption
                Public-Key: (2048 bit)
                Modulus:
                    00:db:66:ff:8b:95:66:96:2e:4a:74:02:80:43:fc:
                    09:fa:b6:41:78:09:f8:e9:bf:6b:41:fd:5b:bf:cc:
                    66:d8:07:c3:0d:ec:48:97:8d:2c:4f:58:f5:b5:27:
                    07:ee:48:7c:6b:98:a2:76:e8:8b:94:11:77:68:36:
                    43:1f:2c:88:9f:d6:40:df:ec:27:16:63:ae:34:1c:
                    d5:ec:26:c5:d9:ad:77:a9:73:14:86:a3:a4:2e:67:
                    63:fd:e8:d7:dd:c7:18:67:0a:d3:af:bf:7d:20:9a:
                    67:fd:5c:c0:7c:6e:cc:d8:ab:3d:2b:8e:ae:09:0c:
                    b5:23:d9:b4:f9:fb:e2:69:e3:69:05:28:5d:ee:37:
                    1b:c7:c0:ba:83:ce:e1:30:62:1f:a9:dd:ab:9e:d4:
                    dd:8c:e4:a4:e0:1f:a5:dc:95:48:02:a0:9f:f4:a5:
                    a8:71:c8:8f:06:be:4c:4e:41:8c:7f:91:47:a8:06:
                    6d:46:c3:49:b8:af:c5:27:46:41:e2:2c:b6:6d:68:
                    66:da:c0:0c:84:be:df:61:ca:49:47:f7:19:66:36:
                    09:05:1b:27:9b:80:43:f0:55:41:b4:4e:0f:25:71:
                    e5:ba:b8:dc:72:b0:b5:49:a8:95:02:49:a8:67:2a:
                    78:f3:b4:0e:ab:69:05:e9:d9:30:ad:b0:bd:26:f0:
                    8d:33
                Exponent: 65537 (0x10001)
        X509v3 extensions:
            X509v3 Basic Constraints: 
                CA:FALSE
            X509v3 Subject Key Identifier: 
                CC:85:AA:3D:E4:37:51:3E:70:46:96:8E:00:65:C3:81:20:E0:E4:87
            X509v3 Authority Key Identifier: 
                21:F7:EF:DA:C3:34:3A:ED:CD:D5:50:C0:B3:BA:09:EE:3F:80:D7:70
            X509v3 Subject Alternative Name: 
                email:user-rsa3072-rsa2048@w1.fi
            X509v3 Extended Key Usage: 
                TLS Web Client Authentication
            X509v3 Key Usage: 
                Digital Signature, Key Encipherment
    Signature Algorithm: sha384WithRSAEncryption
    Signature Value:
        dc:12:5f:2e:fc:cd:4b:6a:64:7d:9f:ed:a4:b7:bf:c4:4f:cf:
        db:8a:64:48:a2:51:7f:38:f3:e0:49:85:7b:bc:1f:a8:28:cd:
        d8:7a:13:f5:46:5e:05:8f:dd:a1:9b:45:84:76:70:c5:c6:00:
        0e:c2:21:4f:f4:f6:99:07:ad:b1:97:c2:4a:28:8a:0f:e4:71:
        5c:99:89:3b:65:03:b9:51:0b:06:69:31:68:72:d8:58:45:4c:
        34:84:34:44:65:bd:93:d5:f3:61:e2:06:bb:db:a7:a2:27:8a:
        dd:7c:a0:2a:68:80:b4:5e:cb:d5:6a:48:11:ac:ca:aa:e8:cd:
        e6:bf:62:6d:25:e0:28:25:18:5a:c2:a5:3c:a8:45:2f:8b:0d:
        7b:2c:10:dc:3f:e7:c3:70:d4:6a:8d:ef:13:5f:fd:02:a9:09:
        8a:c7:7e:3d:3c:9c:b5:96:2d:70:81:a8:62:32:06:69:25:2b:
        30:3c:0c:b3:c6:2d:09:b1:6c:38:f9:57:98:7b:1f:1e:ee:57:
        2b:02:c3:46:b4:1c:e3:01:81:4f:e4:3a:66:d8:f9:8c:fa:d4:
        b3:85:d7:e8:e2:82:32:bb:a8:fd:3e:f3:37:95:18:8b:b8:24:
        90:e4:7a:84:32:3a:c9:05:dd:7e:93:e9:70:af:47:ed:44:ba:
        3c:57:63:eb:4a:f7:61:98:6b:dc:46:33:2b:cc:13:fc:4f:e9:
        f7:90:2a:a1:48:9c:2d:81:2a:83:ee:06:1b:e4:2a:26:11:0c:
        bb:c0:f1:fb:0c:3c:84:ff:23:59:4a:77:cb:19:9c:f3:20:08:
        34:0b:6d:50:ee:4b:a5:3b:0f:aa:55:31:58:87:e4:0d:99:9f:
        8c:c6:f8:76:73:b2:ea:94:c6:c0:fc:23:64:58:48:ac:57:b0:
        7c:21:56:c7:78:22:09:2b:84:83:1d:d2:1b:50:da:10:52:a4:
        4f:bd:5e:0b:b7:9c:7d:c7:7f:41:96:90:00:aa:f8:b0:7e:c0:
        cd:b2:09:d1:9a:3c
-----BEGIN CERTIFICATE-----
MIIEKDCCApCgAwIBAgIJAK2MCej7oojWMA0GCSqGSIb3DQEBDAUAMFExCzAJBgNV
BAYTAkZJMREwDwYDVQQHDAhIZWxzaW5raTEOMAwGA1UECgwFdzEuZmkxHzAdBgNV
BAMMFlN1aXRlIEIgUlNBIDNrIFJvb3QgQ0EwHhcNMjQwNDE3MTgyNjI5WhcNMjYw
NDE3MTgyNjI5WjA8MQswCQYDVQQGEwJGSTEOMAwGA1UECgwFdzEuZmkxHTAbBgNV
BAMMFHVzZXItcnNhMzA3Mi1yc2EyMDQ4MIIBIjANBgkqhkiG9w0BAQEFAAOCAQ8A
MIIBCgKCAQEA22b/i5Vmli5KdAKAQ/wJ+rZBeAn46b9rQf1bv8xm2AfDDexIl40s
T1j1tScH7kh8a5iiduiLlBF3aDZDHyyIn9ZA3+wnFmOuNBzV7CbF2a13qXMUhqOk
Lmdj/ejX3ccYZwrTr799IJpn/VzAfG7M2Ks9K46uCQy1I9m0+fviaeNpBShd7jcb
x8C6g87hMGIfqd2rntTdjOSk4B+l3JVIAqCf9KWocciPBr5MTkGMf5FHqAZtRsNJ
uK/FJ0ZB4iy2bWhm2sAMhL7fYcpJR/cZZjYJBRsnm4BD8FVBtE4PJXHlurjccrC1
SaiVAkmoZyp487QOq2kF6dkwrbC9JvCNMwIDAQABo4GXMIGUMAkGA1UdEwQCMAAw
HQYDVR0OBBYEFMyFqj3kN1E+cEaWjgBlw4Eg4OSHMB8GA1UdIwQYMBaAFCH379rD
NDrtzdVQwLO6Ce4/gNdwMCUGA1UdEQQeMByBGnVzZXItcnNhMzA3Mi1yc2EyMDQ4
QHcxLmZpMBMGA1UdJQQMMAoGCCsGAQUFBwMCMAsGA1UdDwQEAwIFoDANBgkqhkiG
9w0BAQwFAAOCAYEA3BJfLvzNS2pkfZ/tpLe/xE/P24pkSKJRfzjz4EmFe7wfqCjN
2HoT9UZeBY/doZtFhHZwxcYADsIhT/T2mQetsZfCSiiKD+RxXJmJO2UDuVELBmkx
aHLYWEVMNIQ0RGW9k9XzYeIGu9unoieK3XygKmiAtF7L1WpIEazKqujN5r9ibSXg
KCUYWsKlPKhFL4sNeywQ3D/nw3DUao3vE1/9AqkJisd+PTyctZYtcIGoYjIGaSUr
MDwMs8YtCbFsOPlXmHsfHu5XKwLDRrQc4wGBT+Q6Ztj5jPrUs4XX6OKCMruo/T7z
N5UYi7gkkOR6hDI6yQXdfpPpcK9H7US6PFdj60r3YZhr3EYzK8wT/E/p95AqoUic
LYEqg+4GG+QqJhEMu8Dx+ww8hP8jWUp3yxmc8yAINAttUO5LpTsPqlUxWIfkDZmf
jMb4dnOy6pTGwPwjZFhIrFewfCFWx3giCSuEgx3SG1DaEFKkT71eC7ecfcd/QZaQ
AKr4sH7AzbIJ0Zo8
-----END CERTIFICATE-----
