Certificate:
    Data:
        Version: 3 (0x2)
        Serial Number:
            d8:d3:e3:a6:cb:e3:cd:87
        Signature Algorithm: sha256WithRSAEncryption
        Issuer: C=FI, L=Tuusula, O=w1.fi, CN=Root CA
        Validity
            Not Before: Apr 17 18:25:37 2024 GMT
            Not After : Apr 17 18:25:37 2025 GMT
        Subject: C=FI, O=w1.fi, CN=server.w1.fi
        Subject Public Key Info:
            Public Key Algorithm: rsaEncryption
                Public-Key: (2048 bit)
                Modulus:
                    00:fd:0e:5e:cd:19:2c:6a:41:83:d9:2c:0e:36:cd:
                    09:b0:8f:b2:c9:8c:c8:d2:03:38:6e:54:bc:43:ee:
                    ce:f8:59:b1:e9:3f:6d:d4:5e:e3:c5:73:19:3d:0b:
                    bc:29:d7:d0:6e:75:00:35:fc:f7:65:b1:b6:0f:cb:
                    06:49:cf:a9:4e:3d:c2:64:4b:18:24:0a:70:b8:6e:
                    54:dc:90:3f:6c:18:fd:b6:88:ab:37:dc:8b:4b:b5:
                    e1:ff:ed:bb:45:05:a3:f0:aa:51:2b:f1:79:06:7f:
                    2f:cd:5d:fc:e6:8a:af:1b:b9:7b:ca:43:75:01:1d:
                    8e:2d:d9:11:13:86:fb:3c:4b:60:a4:29:49:e3:d2:
                    20:20:cb:5c:0d:9c:d2:9c:30:21:11:bc:b3:74:df:
                    64:b0:b7:67:ee:6a:df:af:3d:18:02:b7:dc:e5:54:
                    75:b5:6c:40:c4:b0:8a:1b:c6:fd:ab:1e:b9:ef:d1:
                    83:09:0d:55:ba:17:88:4e:d0:bd:cf:73:36:7c:28:
                    4b:f6:aa:48:d4:e8:fb:25:d8:1d:af:c9:68:73:ac:
                    46:ae:cb:eb:79:36:57:ad:c3:70:02:15:6d:f0:a5:
                    43:73:ab:72:04:b1:16:60:74:0e:4a:c1:8f:52:28:
                    1a:95:7e:ab:d0:04:f6:fa:11:da:1b:d1:99:a4:4f:
                    9e:ed
                Exponent: 65537 (0x10001)
        X509v3 extensions:
            X509v3 Basic Constraints: 
                CA:FALSE
            X509v3 Subject Key Identifier: 
                71:26:7A:1F:72:81:97:24:11:AA:C0:75:FA:BF:31:10:69:49:D0:E7
            X509v3 Authority Key Identifier: 
                A4:FD:B9:39:1B:81:B3:AA:EB:88:1D:D4:81:A9:B5:11:70:CC:A7:E1
            Authority Information Access: 
                OCSP - URI:http://server.w1.fi:8888/
            X509v3 Subject Alternative Name: 
                DNS:server.w1.fi
            X509v3 Extended Key Usage: 
                TLS Web Server Authentication
    Signature Algorithm: sha256WithRSAEncryption
    Signature Value:
        a2:4b:c4:50:e9:62:ce:34:ad:e4:6a:04:93:e4:46:c7:3f:1c:
        dc:5d:99:8f:3c:da:6e:1f:f3:2b:3a:bb:4d:35:6b:e0:c7:42:
        14:e1:eb:73:93:f2:55:d3:01:27:d0:a8:48:a4:ef:96:b2:20:
        66:23:49:09:2f:98:a4:10:51:f5:52:6c:3b:ee:f0:6c:32:52:
        ff:05:16:d4:42:a2:63:d4:c5:bb:90:23:24:a7:1a:d9:a4:d3:
        b3:8b:12:df:28:f6:c3:a3:00:77:7c:d0:09:92:d3:79:f5:bd:
        58:f6:22:fe:c3:94:9c:a0:0c:aa:0e:b9:55:ca:8d:61:e3:50:
        cb:83:d3:6e:bd:fd:60:fd:42:7f:15:8a:c3:bb:37:d6:af:b5:
        de:c2:40:35:bc:0d:79:8d:58:d7:53:0d:d0:44:74:b5:3a:22:
        21:33:da:c7:ba:ed:2f:8c:8b:3f:69:7f:8b:f0:49:49:ab:d3:
        79:8b:35:d9:1a:8c:d3:cc:df:83:eb:20:ad:3d:cd:a6:b5:27:
        d3:45:f9:90:09:da:71:30:46:3c:10:ae:62:94:ae:ae:da:ae:
        a7:5b:38:a3:91:b9:b5:f3:d3:22:83:f7:2c:a3:26:3a:0c:f8:
        65:1b:ee:f6:9e:af:84:73:72:ec:09:4d:d5:68:1b:ca:ca:d3:
        f0:bc:60:c5
-----BEGIN CERTIFICATE-----
MIIDrDCCApSgAwIBAgIJANjT46bL482HMA0GCSqGSIb3DQEBCwUAMEExCzAJBgNV
BAYTAkZJMRAwDgYDVQQHDAdUdXVzdWxhMQ4wDAYDVQQKDAV3MS5maTEQMA4GA1UE
AwwHUm9vdCBDQTAeFw0yNDA0MTcxODI1MzdaFw0yNTA0MTcxODI1MzdaMDQxCzAJ
BgNVBAYTAkZJMQ4wDAYDVQQKDAV3MS5maTEVMBMGA1UEAwwMc2VydmVyLncxLmZp
MIIBIjANBgkqhkiG9w0BAQEFAAOCAQ8AMIIBCgKCAQEA/Q5ezRksakGD2SwONs0J
sI+yyYzI0gM4blS8Q+7O+Fmx6T9t1F7jxXMZPQu8KdfQbnUANfz3ZbG2D8sGSc+p
Tj3CZEsYJApwuG5U3JA/bBj9toirN9yLS7Xh/+27RQWj8KpRK/F5Bn8vzV385oqv
G7l7ykN1AR2OLdkRE4b7PEtgpClJ49IgIMtcDZzSnDAhEbyzdN9ksLdn7mrfrz0Y
Arfc5VR1tWxAxLCKG8b9qx6579GDCQ1VuheITtC9z3M2fChL9qpI1Oj7Jdgdr8lo
c6xGrsvreTZXrcNwAhVt8KVDc6tyBLEWYHQOSsGPUigalX6r0AT2+hHaG9GZpE+e
7QIDAQABo4GzMIGwMAkGA1UdEwQCMAAwHQYDVR0OBBYEFHEmeh9ygZckEarAdfq/
MRBpSdDnMB8GA1UdIwQYMBaAFKT9uTkbgbOq64gd1IGptRFwzKfhMDUGCCsGAQUF
BwEBBCkwJzAlBggrBgEFBQcwAYYZaHR0cDovL3NlcnZlci53MS5maTo4ODg4LzAX
BgNVHREEEDAOggxzZXJ2ZXIudzEuZmkwEwYDVR0lBAwwCgYIKwYBBQUHAwEwDQYJ
KoZIhvcNAQELBQADggEBAKJLxFDpYs40reRqBJPkRsc/HNxdmY882m4f8ys6u001
a+DHQhTh63OT8lXTASfQqEik75ayIGYjSQkvmKQQUfVSbDvu8GwyUv8FFtRComPU
xbuQIySnGtmk07OLEt8o9sOjAHd80AmS03n1vVj2Iv7DlJygDKoOuVXKjWHjUMuD
0269/WD9Qn8VisO7N9avtd7CQDW8DXmNWNdTDdBEdLU6IiEz2se67S+Miz9pf4vw
SUmr03mLNdkajNPM34PrIK09zaa1J9NF+ZAJ2nEwRjwQrmKUrq7arqdbOKORubXz
0yKD9yyjJjoM+GUb7vaer4RzcuwJTdVoG8rK0/C8YMU=
-----END CERTIFICATE-----
