Certificate:
    Data:
        Version: 1 (0x0)
        Serial Number:
            95:25:f4:94:89:96:3d:aa
        Signature Algorithm: sha1WithRSAEncryption
        Issuer: C=FR, ST=Paris, O=XySSL, CN=XySSL Test CA
        Validity
            Not Before: Sep  7 10:07:25 2006 GMT
            Not After : Sep  7 10:07:25 2007 GMT
        Subject: C=FR, ST=Paris, O=XySSL, CN=localhost
        Subject Public Key Info:
            Public Key Algorithm: rsaEncryption
            RSA Public Key: (2048 bit)
                Modulus (2048 bit):
                    00:91:d0:19:d8:6d:42:07:96:29:b2:48:f7:37:87:
                    c8:9c:06:12:54:61:97:95:5b:dd:27:3a:45:2b:b5:
                    af:5b:8e:5b:f5:a2:58:d6:ec:75:63:87:7c:9f:a4:
                    b1:24:62:b6:4b:32:29:c1:ff:38:12:e7:a4:bd:2e:
                    bf:21:84:51:56:02:d6:21:8f:0c:45:42:be:f3:ec:
                    12:cd:01:a8:71:98:5d:c6:77:2c:ee:2d:a5:f5:5e:
                    0f:51:8a:ea:81:72:59:0e:d0:12:fe:be:96:42:f2:
                    89:a7:28:12:bc:27:98:8e:34:be:e7:dd:34:43:69:
                    98:ca:93:07:26:d7:43:07:81:56:65:ed:b6:9d:cf:
                    c9:03:45:32:a4:01:16:4f:82:45:9e:3e:91:ba:f6:
                    f8:47:3e:7c:f9:c3:8e:c9:91:9b:9b:4b:49:f1:13:
                    1d:83:c3:99:4c:cd:2e:d4:c5:8c:05:56:95:37:80:
                    b6:cc:ad:48:e8:55:c7:e1:fe:65:64:95:9b:3e:96:
                    c9:41:f3:b4:3b:5a:7f:23:03:8f:4e:b9:4d:c8:3e:
                    5e:3b:70:d9:ce:b4:76:27:f5:2b:c3:b3:00:4d:24:
                    7c:fc:99:a3:bc:d1:8c:68:87:ff:74:4d:6a:9f:51:
                    01:be:af:e2:4f:c2:26:9c:4d:b0:a6:9e:c2:c9:7f:
                    b8:dd
                Exponent: 65537 (0x10001)
    Signature Algorithm: sha1WithRSAEncryption
        5f:bf:04:d5:53:53:25:e0:ad:a1:92:fe:ed:b2:95:fc:47:58:
        2c:08:0e:d8:64:1f:89:7c:92:f5:17:55:74:4d:3c:c4:08:e5:
        1d:9d:06:e7:96:09:48:88:1f:4b:18:30:32:fc:fd:ab:ac:9c:
        c1:64:88:3e:0a:24:05:34:f9:b4:a8:8f:70:7a:64:d5:8d:50:
        b5:14:e7:66:8d:6a:f5:96:bc:b6:cd:cf:3b:49:9d:1f:c1:00:
        23:8d:95:f1:06:b8:e1:51:8c:ac:80:d2:df:71:c4:45:76:cc:
        ba:26:7e:95:9d:6d:92:42:15:04:b3:1b:e3:72:bf:46:94:73:
        b3:41:bf:7e:7f:50:19:c5:77:cb:42:1a:82:27:8f:0e:6b:bb:
        c7:a2:1b:ee:fb:9c:b1:92:32:ba:8a:75:85:9a:d6:41:a2:63:
        fc:d8:dc:41:c1:cf:89:ce:9c:16:a6:6b:12:6e:c1:72:81:4b:
        ce:22:ab:e6:1c:71:72:c5:6c:49:9a:28:83:c2:22:4e:7d:58:
        ac:33:56:d2:d3:94:27:d0:75:c1:dd:39:b7:18:c5:25:2a:a9:
        52:d2:39:40:11:e4:50:d3:08:55:79:ea:82:e6:0c:d8:85:aa:
        5d:93:54:2c:5a:2c:3e:d2:7b:36:c3:33:ea:2e:f9:16:6c:22:
        49:18:fc:f0
-----BEGIN CERTIFICATE-----
MIIDAjCCAeoCCQCVJfSUiZY9qjANBgkqhkiG9w0BAQUFADBFMQswCQYDVQQGEwJG
UjEOMAwGA1UECBMFUGFyaXMxDjAMBgNVBAoTBVh5U1NMMRYwFAYDVQQDEw1YeVNT
TCBUZXN0IENBMB4XDTA2MDkwNzEwMDcyNVoXDTA3MDkwNzEwMDcyNVowQTELMAkG
A1UEBhMCRlIxDjAMBgNVBAgTBVBhcmlzMQ4wDAYDVQQKEwVYeVNTTDESMBAGA1UE
AxMJbG9jYWxob3N0MIIBIjANBgkqhkiG9w0BAQEFAAOCAQ8AMIIBCgKCAQEAkdAZ
2G1CB5Ypskj3N4fInAYSVGGXlVvdJzpFK7WvW45b9aJY1ux1Y4d8n6SxJGK2SzIp
wf84EuekvS6/IYRRVgLWIY8MRUK+8+wSzQGocZhdxncs7i2l9V4PUYrqgXJZDtAS
/r6WQvKJpygSvCeYjjS+5900Q2mYypMHJtdDB4FWZe22nc/JA0UypAEWT4JFnj6R
uvb4Rz58+cOOyZGbm0tJ8RMdg8OZTM0u1MWMBVaVN4C2zK1I6FXH4f5lZJWbPpbJ
QfO0O1p/IwOPTrlNyD5eO3DZzrR2J/Urw7MATSR8/JmjvNGMaIf/dE1qn1EBvq/i
T8ImnE2wpp7CyX+43QIDAQABMA0GCSqGSIb3DQEBBQUAA4IBAQBfvwTVU1Ml4K2h
kv7tspX8R1gsCA7YZB+JfJL1F1V0TTzECOUdnQbnlglIiB9LGDAy/P2rrJzBZIg+
CiQFNPm0qI9wemTVjVC1FOdmjWr1lry2zc87SZ0fwQAjjZXxBrjhUYysgNLfccRF
dsy6Jn6VnW2SQhUEsxvjcr9GlHOzQb9+f1AZxXfLQhqCJ48Oa7vHohvu+5yxkjK6
inWFmtZBomP82NxBwc+JzpwWpmsSbsFygUvOIqvmHHFyxWxJmiiDwiJOfVisM1bS
05Qn0HXB3Tm3GMUlKqlS0jlAEeRQ0whVeeqC5gzYhapdk1QsWiw+0ns2wzPqLvkW
bCJJGPzw
-----END CERTIFICATE-----
