Certificate:
    Data:
        Version: 3 (0x2)
        Serial Number: 1 (0x1)
        Signature Algorithm: md5WithRSAEncryption
        Issuer: C=FR, ST=Radius, L=Somewhere, O=Example Inc./emailAddress=admin@example.com, CN=Example Certificate Authority
        Validity
            Not Before: Sep  4 01:36:59 2009 GMT
            Not After : Sep  4 01:36:59 2010 GMT
        Subject: C=FR, ST=Radius, O=Example Inc., CN=Example Server Certificate/emailAddress=admin@example.com
        Subject Public Key Info:
            Public Key Algorithm: rsaEncryption
            RSA Public Key: (2048 bit)
                Modulus (2048 bit):
                    00:b1:ba:2a:1d:3f:14:68:fb:7a:e3:37:e5:9b:41:
                    ec:d8:aa:50:d7:5c:5f:3c:a0:f6:11:37:79:e3:2f:
                    d6:17:14:48:32:c6:b6:34:dd:8b:95:01:48:33:73:
                    4b:e7:f6:2b:aa:bf:dc:31:77:7b:90:36:77:dd:af:
                    e7:bc:2b:62:ba:93:77:8e:cd:32:81:4f:58:5a:9f:
                    0a:28:5c:e5:d3:0f:4a:99:9c:17:2c:b9:a5:84:fd:
                    cd:f5:61:d2:0d:da:21:60:9e:33:50:51:e2:d3:28:
                    84:5d:98:fb:9d:a4:2b:bd:f1:48:d1:1f:41:5f:a7:
                    da:8e:8a:c7:26:48:e5:b6:c5:15:bb:3a:0d:e0:11:
                    96:12:00:81:75:48:a5:30:e9:25:9d:8e:4c:24:a9:
                    d8:6c:2a:29:1a:f0:e2:59:5c:bf:eb:00:9e:ab:29:
                    e2:52:02:9a:c1:df:cf:4d:36:8d:a4:56:80:91:d7:
                    ea:b3:f7:77:7a:52:a2:a1:63:de:b0:88:80:ed:86:
                    2b:89:d4:c6:33:97:ef:78:c6:c6:1c:15:49:cc:5b:
                    d4:ba:82:c7:e6:1e:1f:aa:6c:44:b1:67:1c:f8:d0:
                    df:27:55:d6:4b:47:cd:ae:88:95:8d:14:cb:70:94:
                    74:43:f4:c6:5d:a9:ba:f0:b9:01:54:29:21:a6:8c:
                    6b:89
                Exponent: 65537 (0x10001)
        X509v3 extensions:
            X509v3 Extended Key Usage: 
                TLS Web Server Authentication
    Signature Algorithm: md5WithRSAEncryption
        5a:a8:08:bc:e9:7c:b1:93:8d:7a:51:b5:4a:ac:f9:bc:0e:81:
        6d:cb:96:f1:20:75:bb:9b:4a:75:4d:15:e3:8a:66:dd:c7:52:
        1d:9d:b8:87:d9:dc:49:17:4d:1d:18:7d:a2:12:5d:4b:10:b4:
        c6:e0:d3:e8:f7:32:a9:91:1d:b7:8c:f7:58:2b:d8:ed:28:29:
        4f:2b:72:b7:53:cb:3c:46:6a:19:55:1b:0c:65:7a:b6:fc:50:
        57:ca:18:39:ef:6c:3e:7f:dd:c8:91:33:e8:4e:5d:e8:89:10:
        41:d2:c0:91:9d:da:f9:cc:2e:64:9a:4b:ef:4b:24:d6:b4:07:
        d2:75:73:61:28:a5:81:fd:40:b5:28:d5:7b:3c:b2:87:ee:ad:
        fc:16:3e:41:d5:49:9e:a5:64:e6:77:20:10:80:e3:44:e1:8d:
        c7:c2:89:71:0d:dc:cc:a9:76:04:69:e5:40:be:d0:51:77:13:
        20:b4:2c:dc:ca:e8:26:2a:2b:97:8f:46:51:76:65:65:d7:ce:
        71:86:40:36:91:7c:de:b7:ec:0e:d4:ec:9f:69:cb:ed:47:8e:
        8e:4c:45:89:72:8b:1b:90:ed:0b:7b:23:8c:01:6c:93:30:79:
        ad:8a:18:1f:60:bf:09:54:cc:b0:8d:45:f1:c9:38:71:c2:a5:
        3f:ae:48:18
-----BEGIN CERTIFICATE-----
MIIDojCCAoqgAwIBAgIBATANBgkqhkiG9w0BAQQFADCBkzELMAkGA1UEBhMCRlIx
DzANBgNVBAgTBlJhZGl1czESMBAGA1UEBxMJU29tZXdoZXJlMRUwEwYDVQQKEwxF
eGFtcGxlIEluYy4xIDAeBgkqhkiG9w0BCQEWEWFkbWluQGV4YW1wbGUuY29tMSYw
JAYDVQQDEx1FeGFtcGxlIENlcnRpZmljYXRlIEF1dGhvcml0eTAeFw0wOTA5MDQw
MTM2NTlaFw0xMDA5MDQwMTM2NTlaMHwxCzAJBgNVBAYTAkZSMQ8wDQYDVQQIEwZS
YWRpdXMxFTATBgNVBAoTDEV4YW1wbGUgSW5jLjEjMCEGA1UEAxMaRXhhbXBsZSBT
ZXJ2ZXIgQ2VydGlmaWNhdGUxIDAeBgkqhkiG9w0BCQEWEWFkbWluQGV4YW1wbGUu
Y29tMIIBIjANBgkqhkiG9w0BAQEFAAOCAQ8AMIIBCgKCAQEAsboqHT8UaPt64zfl
m0Hs2KpQ11xfPKD2ETd54y/WFxRIMsa2NN2LlQFIM3NL5/Yrqr/cMXd7kDZ33a/n
vCtiupN3js0ygU9YWp8KKFzl0w9KmZwXLLmlhP3N9WHSDdohYJ4zUFHi0yiEXZj7
naQrvfFI0R9BX6fajorHJkjltsUVuzoN4BGWEgCBdUilMOklnY5MJKnYbCopGvDi
WVy/6wCeqyniUgKawd/PTTaNpFaAkdfqs/d3elKioWPesIiA7YYridTGM5fveMbG
HBVJzFvUuoLH5h4fqmxEsWcc+NDfJ1XWS0fNroiVjRTLcJR0Q/TGXam68LkBVCkh
poxriQIDAQABoxcwFTATBgNVHSUEDDAKBggrBgEFBQcDATANBgkqhkiG9w0BAQQF
AAOCAQEAWqgIvOl8sZONelG1Sqz5vA6BbcuW8SB1u5tKdU0V44pm3cdSHZ24h9nc
SRdNHRh9ohJdSxC0xuDT6PcyqZEdt4z3WCvY7SgpTytyt1PLPEZqGVUbDGV6tvxQ
V8oYOe9sPn/dyJEz6E5d6IkQQdLAkZ3a+cwuZJpL70sk1rQH0nVzYSilgf1AtSjV
ezyyh+6t/BY+QdVJnqVk5ncgEIDjROGNx8KJcQ3czKl2BGnlQL7QUXcTILQs3Mro
Jiorl49GUXZlZdfOcYZANpF83rfsDtTsn2nL7UeOjkxFiXKLG5DtC3sjjAFskzB5
rYoYH2C/CVTMsI1F8ck4ccKlP65IGA==
-----END CERTIFICATE-----
