Certificate:
    Data:
        Version: 3 (0x2)
        Serial Number: 1 (0x1)
        Signature Algorithm: md5WithRSAEncryption
        Issuer: C=FR, ST=Radius, L=Somewhere, O=Example Inc./emailAddress=admin@example.com, CN=Example Certificate Authority
        Validity
            Not Before: Aug 29 13:46:45 2009 GMT
            Not After : Aug 29 13:46:45 2010 GMT
        Subject: C=FR, ST=Radius, O=Example Inc., CN=Example Server Certificate/emailAddress=admin@example.com
        Subject Public Key Info:
            Public Key Algorithm: rsaEncryption
            RSA Public Key: (2048 bit)
                Modulus (2048 bit):
                    00:d1:aa:5c:b6:ea:52:44:0c:8a:c3:1a:0b:75:83:
                    74:61:2c:69:d3:b1:a6:88:98:42:09:cf:0f:e1:99:
                    34:6e:89:65:13:54:15:a0:c2:d5:e3:5b:95:23:8a:
                    4d:59:bc:73:9b:fc:41:95:d7:3b:8d:1c:ed:11:93:
                    f3:f2:29:ba:2f:3d:65:69:eb:7a:80:81:38:5e:bc:
                    8e:52:db:25:e8:c3:c6:5c:10:0e:fc:40:d9:58:d0:
                    3a:87:cd:20:8b:bb:6b:03:df:45:3c:43:6a:95:1d:
                    92:f4:48:1b:f9:7d:d7:05:e8:2b:d2:d3:11:0b:4e:
                    c4:38:ac:a2:9d:19:ea:97:1c:a7:da:92:8c:e5:23:
                    88:32:14:4c:3b:3d:e4:f6:22:d2:e1:1f:dd:34:98:
                    91:77:af:16:05:36:26:65:d7:0c:0e:9f:13:27:aa:
                    f8:ec:76:dc:92:5d:d7:99:71:b6:69:d6:8e:45:a8:
                    e6:fd:f8:81:8e:dc:d5:eb:5d:13:74:6b:61:26:d8:
                    82:4e:86:64:61:6b:39:27:f9:15:74:21:fd:1f:a2:
                    15:3e:2b:76:86:de:46:66:c9:9f:ed:c1:4b:cd:44:
                    9a:93:de:ac:58:66:0b:7e:ea:10:5a:b1:63:29:9b:
                    fd:77:ad:66:0c:65:b8:9a:9a:b2:62:c8:b6:fe:0e:
                    f4:85
                Exponent: 65537 (0x10001)
        X509v3 extensions:
            X509v3 Extended Key Usage: 
                TLS Web Server Authentication
    Signature Algorithm: md5WithRSAEncryption
        97:a7:96:71:13:7b:86:8a:5b:78:e6:4c:89:35:c2:a6:83:6e:
        30:39:29:e4:d6:89:3c:56:55:9d:93:5a:89:29:9f:52:df:a3:
        a7:25:c1:66:62:7f:54:06:81:18:18:e5:0a:5e:69:8a:51:31:
        3a:9f:2a:55:60:43:00:4e:a1:d3:94:aa:70:84:77:80:d9:01:
        fc:95:8c:60:d7:2e:3d:f6:9c:96:6e:f1:73:22:37:68:15:53:
        19:98:0f:0f:a5:39:45:38:5a:9d:dc:76:48:49:86:fc:86:9d:
        2c:4b:9f:e9:ff:19:76:fe:9d:f8:9c:b4:b9:8b:7c:81:68:f8:
        ae:ff:c5:c6:b3:10:14:48:2e:0d:45:96:d7:ea:a7:e8:b8:3f:
        bc:14:04:de:e6:ca:25:a5:4d:cc:c2:17:c6:fb:9d:17:32:64:
        76:e8:52:9b:a5:04:52:b7:95:47:df:4d:19:6e:9f:d5:dd:8d:
        d7:9c:40:31:fb:f2:29:78:69:c5:f0:36:27:5e:ed:91:87:85:
        f1:69:4d:5b:93:74:0c:fd:d6:96:f1:16:53:c9:2f:ae:f0:3a:
        28:90:00:2c:61:59:c9:e5:ea:e0:a2:89:c1:53:4a:39:fe:17:
        c6:98:4d:5d:28:e9:c4:f4:ee:ea:9f:4b:27:00:49:bc:84:83:
        bf:74:95:33
-----BEGIN CERTIFICATE-----
MIIDojCCAoqgAwIBAgIBATANBgkqhkiG9w0BAQQFADCBkzELMAkGA1UEBhMCRlIx
DzANBgNVBAgTBlJhZGl1czESMBAGA1UEBxMJU29tZXdoZXJlMRUwEwYDVQQKEwxF
eGFtcGxlIEluYy4xIDAeBgkqhkiG9w0BCQEWEWFkbWluQGV4YW1wbGUuY29tMSYw
JAYDVQQDEx1FeGFtcGxlIENlcnRpZmljYXRlIEF1dGhvcml0eTAeFw0wOTA4Mjkx
MzQ2NDVaFw0xMDA4MjkxMzQ2NDVaMHwxCzAJBgNVBAYTAkZSMQ8wDQYDVQQIEwZS
YWRpdXMxFTATBgNVBAoTDEV4YW1wbGUgSW5jLjEjMCEGA1UEAxMaRXhhbXBsZSBT
ZXJ2ZXIgQ2VydGlmaWNhdGUxIDAeBgkqhkiG9w0BCQEWEWFkbWluQGV4YW1wbGUu
Y29tMIIBIjANBgkqhkiG9w0BAQEFAAOCAQ8AMIIBCgKCAQEA0apctupSRAyKwxoL
dYN0YSxp07GmiJhCCc8P4Zk0bollE1QVoMLV41uVI4pNWbxzm/xBldc7jRztEZPz
8im6Lz1laet6gIE4XryOUtsl6MPGXBAO/EDZWNA6h80gi7trA99FPENqlR2S9Egb
+X3XBegr0tMRC07EOKyinRnqlxyn2pKM5SOIMhRMOz3k9iLS4R/dNJiRd68WBTYm
ZdcMDp8TJ6r47Hbckl3XmXG2adaORajm/fiBjtzV610TdGthJtiCToZkYWs5J/kV
dCH9H6IVPit2ht5GZsmf7cFLzUSak96sWGYLfuoQWrFjKZv9d61mDGW4mpqyYsi2
/g70hQIDAQABoxcwFTATBgNVHSUEDDAKBggrBgEFBQcDATANBgkqhkiG9w0BAQQF
AAOCAQEAl6eWcRN7hopbeOZMiTXCpoNuMDkp5NaJPFZVnZNaiSmfUt+jpyXBZmJ/
VAaBGBjlCl5pilExOp8qVWBDAE6h05SqcIR3gNkB/JWMYNcuPfaclm7xcyI3aBVT
GZgPD6U5RThandx2SEmG/IadLEuf6f8Zdv6d+Jy0uYt8gWj4rv/FxrMQFEguDUWW
1+qn6Lg/vBQE3ubKJaVNzMIXxvudFzJkduhSm6UEUreVR99NGW6f1d2N15xAMfvy
KXhpxfA2J17tkYeF8WlNW5N0DP3WlvEWU8kvrvA6KJAALGFZyeXq4KKJwVNKOf4X
xphNXSjpxPTu6p9LJwBJvISDv3SVMw==
-----END CERTIFICATE-----
