Certificate:
    Data:
        Version: 3 (0x2)
        Serial Number: 1 (0x1)
        Signature Algorithm: md5WithRSAEncryption
        Issuer: C=FR, ST=Radius, L=Somewhere, O=Example Inc./emailAddress=admin@example.com, CN=Example Certificate Authority
        Validity
            Not Before: Sep  4 02:19:52 2009 GMT
            Not After : Sep  4 02:19:52 2010 GMT
        Subject: C=FR, ST=Radius, O=Example Inc., CN=Example Server Certificate/emailAddress=admin@example.com
        Subject Public Key Info:
            Public Key Algorithm: rsaEncryption
            RSA Public Key: (2048 bit)
                Modulus (2048 bit):
                    00:ad:8b:c1:45:2c:35:1c:43:2b:48:59:48:7f:f7:
                    57:0d:13:e4:94:13:9d:59:3a:67:42:11:d8:1a:1d:
                    a5:fc:8c:d6:c6:64:e3:63:8a:08:68:d1:f5:f9:21:
                    e3:09:4d:e3:ba:41:5f:31:c6:ae:0d:a4:71:c9:0a:
                    b9:67:6f:90:7a:a3:42:1c:10:63:66:c9:cc:5d:74:
                    d4:94:64:af:0e:18:b5:c8:a9:74:98:4b:6a:fd:9a:
                    c4:6e:de:8d:0b:44:b4:a9:04:dc:52:c2:ed:87:0b:
                    2a:4e:f6:ec:0b:84:80:09:dc:69:b4:0d:ff:67:5b:
                    db:28:72:24:62:da:1b:80:58:92:49:f7:b4:5d:61:
                    81:92:a1:83:87:2f:5b:51:54:a2:72:52:ba:ec:40:
                    25:25:f3:1e:e5:d9:c1:de:b8:7f:99:be:c5:96:4b:
                    5b:dd:37:f3:06:41:36:6c:b3:cb:53:cd:2a:63:aa:
                    6c:7a:02:4a:96:cb:2f:d0:23:ee:61:7c:06:5d:96:
                    cb:e4:0f:12:3c:06:e6:ac:d4:73:cf:2d:db:34:f6:
                    43:ef:99:c3:b1:f9:ab:ce:16:60:c4:cd:2c:5f:a4:
                    f6:2c:85:d6:8c:40:51:c1:32:f7:e8:0c:f9:db:d0:
                    fa:5b:e5:91:f8:81:31:16:2c:4e:7f:69:82:20:d7:
                    9f:cb
                Exponent: 65537 (0x10001)
        X509v3 extensions:
            X509v3 Extended Key Usage: 
                TLS Web Server Authentication
    Signature Algorithm: md5WithRSAEncryption
        5f:88:28:3c:14:60:d2:4f:2a:ca:d3:91:57:6d:db:d9:3e:80:
        96:31:5d:16:12:20:40:7b:a2:ac:d5:86:a4:aa:c9:f5:38:f2:
        54:16:66:5f:36:66:e2:b5:ac:48:dc:52:1c:dd:22:50:69:44:
        b2:e5:64:6c:26:be:55:51:ba:42:1a:c7:26:54:2c:31:44:c8:
        9c:09:7a:5a:8b:a6:94:03:14:e2:2f:6c:dc:5d:74:b0:32:ed:
        35:a6:52:0f:dd:8d:6a:98:24:00:cd:bf:43:eb:06:cc:50:bb:
        d6:83:0f:ae:e8:22:f5:61:38:1a:47:8d:f4:9c:fa:2f:3f:d3:
        87:83:2c:07:b7:0b:7b:bc:a0:00:8f:c9:3b:11:d1:6a:4b:a0:
        11:d7:d5:be:d0:7a:37:36:3e:d0:af:4f:ea:3f:97:d6:85:6e:
        ed:30:5d:ec:b4:d9:35:c0:94:b4:b0:4a:8b:09:32:34:4d:a7:
        0d:e7:cd:45:bf:c4:b0:d3:5b:47:a7:db:d9:10:64:0a:17:dc:
        35:40:ea:72:f0:80:66:1f:b8:23:62:f5:f6:99:a4:59:52:b6:
        c2:b2:d1:73:9f:21:f6:9e:8c:12:7e:c3:57:99:46:ef:84:75:
        e3:cc:85:01:26:9e:4e:2f:55:48:ac:ab:d1:ef:72:90:03:b0:
        ed:09:43:f4
-----BEGIN CERTIFICATE-----
MIIDojCCAoqgAwIBAgIBATANBgkqhkiG9w0BAQQFADCBkzELMAkGA1UEBhMCRlIx
DzANBgNVBAgTBlJhZGl1czESMBAGA1UEBxMJU29tZXdoZXJlMRUwEwYDVQQKEwxF
eGFtcGxlIEluYy4xIDAeBgkqhkiG9w0BCQEWEWFkbWluQGV4YW1wbGUuY29tMSYw
JAYDVQQDEx1FeGFtcGxlIENlcnRpZmljYXRlIEF1dGhvcml0eTAeFw0wOTA5MDQw
MjE5NTJaFw0xMDA5MDQwMjE5NTJaMHwxCzAJBgNVBAYTAkZSMQ8wDQYDVQQIEwZS
YWRpdXMxFTATBgNVBAoTDEV4YW1wbGUgSW5jLjEjMCEGA1UEAxMaRXhhbXBsZSBT
ZXJ2ZXIgQ2VydGlmaWNhdGUxIDAeBgkqhkiG9w0BCQEWEWFkbWluQGV4YW1wbGUu
Y29tMIIBIjANBgkqhkiG9w0BAQEFAAOCAQ8AMIIBCgKCAQEArYvBRSw1HEMrSFlI
f/dXDRPklBOdWTpnQhHYGh2l/IzWxmTjY4oIaNH1+SHjCU3jukFfMcauDaRxyQq5
Z2+QeqNCHBBjZsnMXXTUlGSvDhi1yKl0mEtq/ZrEbt6NC0S0qQTcUsLthwsqTvbs
C4SACdxptA3/Z1vbKHIkYtobgFiSSfe0XWGBkqGDhy9bUVSiclK67EAlJfMe5dnB
3rh/mb7Flktb3TfzBkE2bLPLU80qY6psegJKlssv0CPuYXwGXZbL5A8SPAbmrNRz
zy3bNPZD75nDsfmrzhZgxM0sX6T2LIXWjEBRwTL36Az529D6W+WR+IExFixOf2mC
INefywIDAQABoxcwFTATBgNVHSUEDDAKBggrBgEFBQcDATANBgkqhkiG9w0BAQQF
AAOCAQEAX4goPBRg0k8qytORV23b2T6AljFdFhIgQHuirNWGpKrJ9TjyVBZmXzZm
4rWsSNxSHN0iUGlEsuVkbCa+VVG6QhrHJlQsMUTInAl6WoumlAMU4i9s3F10sDLt
NaZSD92NapgkAM2/Q+sGzFC71oMPrugi9WE4GkeN9Jz6Lz/Th4MsB7cLe7ygAI/J
OxHRakugEdfVvtB6NzY+0K9P6j+X1oVu7TBd7LTZNcCUtLBKiwkyNE2nDefNRb/E
sNNbR6fb2RBkChfcNUDqcvCAZh+4I2L19pmkWVK2wrLRc58h9p6MEn7DV5lG74R1
48yFASaeTi9VSKyr0e9ykAOw7QlD9A==
-----END CERTIFICATE-----
